(lp1
I9147
a(lp2
(I0
I3
tp3
a(I0
I3
tp4
a(I0
I3
tp5
a(I0
I3
tp6
a(I0
I3
tp7
a(I0
I3
tp8
a(I0
I3
tp9
a(I0
I3
tp10
a(I0
I3
tp11
a(I0
I3
tp12
a(I0
I3
tp13
a(I0
I3
tp14
a(I0
I3
tp15
a(I0
I3
tp16
a(I0
I3
tp17
a(I0
I2
tp18
a(I0
I2
tp19
a(I0
I2
tp20
a(I0
I2
tp21
a(I0
I2
tp22
a(I0
I2
tp23
a(I0
I2
tp24
a(I0
I2
tp25
a(I0
I0
tp26
a(I0
I2
tp27
a(I0
I1
tp28
a(I0
I1
tp29
a(I0
I2
tp30
a(I0
I2
tp31
a(I0
I1
tp32
a(I0
I1
tp33
a(I0
I2
tp34
a(I0
I2
tp35
a(I0
I2
tp36
a(I1
I2
tp37
aa(lp38
F0.0049958136583168056
aF0.010663578861317635
aF0.039440634144614961
aF0.95883468325066978
aF0.0015191947966894936
aF0.49747056152291202
aF0.034083281339966742
aF0.011043377560493894
aF0.51940028448942588
aF0.13776467430290684
aF1.0952791918828946
aF0.0028630978860633149
aF0.00014607642276054378
aF0.69808826862794993
aF0.0018405629267466139
aF0.001168611382063256
aF0.0001168611382038609
aF0.00029215284550110354
aF0.002015854634056069
aF0.59011770670178998
aF0.0017821323576461268
aF0.001460764227581457
aF2.9215284547134956e-05
aF0.017076333820386758
aF1.0247589728412669
aF0.24352400437956812
aF0.31307464116514594
aF0.22061191747000741
aF0.00096410439020155891
aF0.033597577234301568
aa(lp39
F27.313996128614797
aF17.322142429834159
aF14.927493717652114
aF13.490587574166968
aF-6.4133403851678166
aF11.425214192609717
aF11.104217619234349
aF8.4807604761820006
aF6.8223016428641863
aF6.2794866967469103
aF4.940127544793274
aF4.5504430135188265
aF3.5842387712072989
aF3.1736691258299383
aF2.9623677476151631
aF2.4446137606005691
aF2.2527699547387177
aF1.9655856699415188
aF1.4812444639254085
aF1.2138752677112645
aF1.0119167240394753
aF0.95254189919985632
aF0.58704183591839409
aF0.0097918241058570447
aF0.40059035985034419
aF0.082275362634950139
aF0.14962762275924865
aF0.19362516428501447
aF0.24190307644889755
aF0.22080624531533774
aa(lp40
F29.010825842139951
aF20.445505464097362
aF15.283771222524608
aF13.978405811384066
aF12.402782379099149
aF11.27867434582503
aF8.9035363630759967
aF8.4745166495516884
aF6.4733878201002488
aF5.5472101399459444
aF4.7581294779779784
aF3.9160822726308306
aF3.4966831440434376
aF3.1089138296796004
aF2.9578442920725205
aF2.3952326532397885
aF1.9904968442057185
aF1.6306264021823713
aF1.2913296790072875
aF1.2125774661940194
aF0.95445137848440509
aF0.82692096420975592
aF0.57007118267721413
aF0.0084564682497722064
aF0.39817853834856065
aF0.082039166661701843
aF0.13963173486703714
aF0.18942734563443347
aF0.2312028841247977
aF0.22037776674033413
aaI174
aI280
aI140
a.