(lp1
I1010
a(lp2
(I0
I3
tp3
a(I0
I3
tp4
a(I0
I3
tp5
a(I0
I3
tp6
a(I0
I3
tp7
a(I0
I3
tp8
a(I0
I3
tp9
a(I0
I3
tp10
a(I0
I3
tp11
a(I0
I3
tp12
a(I0
I3
tp13
a(I0
I3
tp14
a(I0
I3
tp15
a(I0
I3
tp16
a(I0
I3
tp17
a(I0
I3
tp18
a(I0
I3
tp19
a(I0
I2
tp20
a(I0
I2
tp21
a(I0
I2
tp22
a(I0
I2
tp23
a(I0
I2
tp24
a(I0
I1
tp25
a(I0
I1
tp26
a(I0
I2
tp27
a(I0
I2
tp28
a(I0
I2
tp29
a(I0
I2
tp30
a(I0
I1
tp31
a(I0
I2
tp32
a(I0
I1
tp33
a(I0
I1
tp34
a(I0
I1
tp35
a(I0
I2
tp36
a(I0
I0
tp37
a(I0
I0
tp38
a(I0
I1
tp39
a(I0
I2
tp40
a(I0
I2
tp41
a(I0
I2
tp42
a(I0
I0
tp43
a(I0
I0
tp44
a(I0
I1
tp45
a(I0
I2
tp46
a(I0
I0
tp47
a(I0
I2
tp48
a(I0
I1
tp49
a(I0
I2
tp50
a(I0
I2
tp51
a(I0
I2
tp52
a(I0
I2
tp53
a(I0
I2
tp54
a(I0
I1
tp55
a(I0
I2
tp56
a(I0
I2
tp57
a(I0
I2
tp58
a(I0
I2
tp59
a(I0
I2
tp60
a(I0
I2
tp61
aa(lp62
F0.00041678761231714323
aF0.00047203295019149216
aF0.028969536288344977
aF0.0028482817868591909
aF0.0035318554295447058
aF0.062811851238815039
aF0.0034461901904350167
aF0.0015640025083012432
aF0.0160281410642793
aF0.50160603929858938
aF1.0610418093613898
aF3.671367390434277e-05
aF0.010008147506169962
aF0.36211800479047335
aF7.3427347803134424e-06
aF0.48526730554814024
aF0.016579895134948439
aF0.0002790239216687862
aF2.9370939122974615e-05
aF3.6713673903676636e-05
aF0.0007563016824172486
aF0.01169068273307583
aF7.3427347835330892e-06
aF0.37921309017391408
aF6.6084613026540229e-05
aF0.0011454666257980153
aF0.0019300902852275315
aF0.0015052606300551587
aF0.059857973932728986
aF2.9370939122908696e-05
aF7.3427347793697528e-06
aF0.0063734937896974472
aF0.00023496751298419938
aF0.0044790682162615635
aF0.18703324122505194
aF0.32592566505612247
aF0.00028636665644909964
aF0.0015786879778634244
aF0.69446974494340719
aF7.3427347802024201e-06
aF0.060227558250026396
aF0.066679374544050457
aF7.3427347807818177e-06
aF0.0028335963172978484
aF0.41293454137886831
aF0.00049196323031078931
aF0.00034510853469954528
aF0.0022101631690075174
aF0.019545610727722595
aF0.0003010521260110588
aa(lp63
F17.151326558189204
aF16.196291838814791
aF13.240167467173922
aF12.89327916243681
aF11.03783576433837
aF9.9540140759310258
aF9.1331129137949727
aF8.2209630909877784
aF6.8201130017080676
aF-3.1904137164052799
aF6.0626230589780779
aF5.687746915968229
aF5.6144118606959887
aF5.1673318444983378
aF4.1516991473314757
aF3.8842503779939355
aF3.3626078585278978
aF2.8818805200070958
aF2.3875824496145786
aF2.2312558610131243
aF1.6824098045845908
aF1.5239111555802343
aF1.3744240916384165
aF1.2576158517566567
aF1.13029539481232
aF1.0629313068235704
aF1.0092053666835314
aF0.83570362669197584
aF0.79177616764655667
aF0.72644122573273107
aF0.68142539900827148
aF0.60252915561519527
aF0.57368495418299092
aF0.44206982123500821
aF0.352885050157978
aF0.32597186337636819
aF0.23560998807820724
aF0.14464698837264983
aF0.002872443583021442
aF0.11487784492989245
aF0.11185595181833113
aF0.098912790114573282
aF0.090891575541087843
aF0.064048187552441849
aF0.031109381158368907
aF0.035072463227168553
aF0.050781260975216264
aF0.043928857453768753
aF0.046224763588007596
aF0.045609552162824217
aa(lp64
F17.169585210247767
aF16.695873757752246
aF15.450591808014442
aF12.89335735152331
aF11.399284464546588
aF10.082126571878545
aF9.7927208654750633
aF8.8364543096103407
aF6.8202547135475422
aF6.7013388957206841
aF6.0550631338076517
aF5.615390682441701
aF5.224745523596507
aF4.379924354745147
aF3.8856578926578016
aF3.4014834951044186
aF2.9950211761715453
aF2.5810509911776078
aF2.2448288098079536
aF2.1833151181155772
aF1.5424134542889172
aF1.4107504956432313
aF1.3744067759625793
aF1.2090565837548841
aF1.1130366196152486
aF1.0096497044596096
aF0.95689252503609246
aF0.80177359928096104
aF0.74858538783003248
aF0.71820751636555102
aF0.60960159370052225
aF0.59215533021391331
aF0.52425216974309952
aF0.43591526968135375
aF0.33078672091671818
aF0.3123945985730528
aF0.20366529725707913
aF0.14459260242109995
aF0.0028723934221995219
aF0.11359777327774996
aF0.1117084801759778
aF0.097806881796047462
aF0.090886159938461289
aF0.064044351787428858
aF0.031027195768236971
aF0.032253861770724299
aF0.050462642684280912
aF0.043558236846146479
aF0.046022239228859417
aF0.04559072251494755
aaI286
aI464
aI232
a.