(lp1
I274
a(lp2
(I0
I3
tp3
a(I0
I3
tp4
a(I0
I3
tp5
a(I0
I3
tp6
a(I0
I3
tp7
a(I0
I3
tp8
a(I0
I3
tp9
a(I0
I3
tp10
a(I0
I3
tp11
a(I0
I3
tp12
a(I0
I3
tp13
a(I0
I3
tp14
a(I0
I3
tp15
a(I0
I3
tp16
a(I0
I2
tp17
a(I0
I2
tp18
a(I0
I2
tp19
a(I0
I1
tp20
a(I0
I2
tp21
a(I0
I2
tp22
a(I0
I1
tp23
a(I0
I2
tp24
a(I0
I2
tp25
a(I0
I2
tp26
a(I0
I2
tp27
a(I0
I2
tp28
a(I0
I1
tp29
a(I0
I1
tp30
a(I0
I1
tp31
a(I0
I1
tp32
a(I0
I1
tp33
a(I0
I1
tp34
a(I0
I2
tp35
a(I0
I2
tp36
aa(lp37
F0.60376101492592715
aF0.00084504670292573358
aF0.13858765927988523
aF7.4562944375411444e-05
aF0.15952493406061991
aF0.00079533807334225722
aF0.010538229471783733
aF0.00089475533250915618
aF0.057910553465232883
aF0.00099417259167777772
aF9.9417259167733363e-05
aF0.71471067615717043
aF9.9417259167733363e-05
aF0.00022368883312750198
aF0.0093700766765630484
aF1.094136645771
aF0.48336671407374876
aF9.9417259167733363e-05
aF0.00077048375855071072
aF0.0010935898508455111
aF0.0032559152377447109
aF0.012924243691813553
aF0.0060893071240251118
aF0.69787187788562799
aF0.03730632650270993
aF0.084604087551779728
aF0.0018889279241875445
aF0.36341979088782062
aF0.19561588457000351
aF0.084952047958868238
aa(lp38
F24.241233296142507
aF18.551487210284286
aF16.893461825149039
aF14.65906109105225
aF13.030902359330314
aF10.818116123220062
aF8.986167836240563
aF-4.7091826337273321
aF7.6080034659595936
aF5.9920503385868216
aF5.1148192929739587
aF4.5445465759555468
aF3.979707553777375
aF2.9767567800153731
aF2.5520037199002941
aF1.7080235654792084
aF1.2662881644570363
aF1.1841522505299149
aF0.86311620683640111
aF0.73714927872133018
aF0.71846949649024039
aF0.50632787143590585
aF0.4223827245988323
aF0.021812567032295203
aF0.045203602090053224
aF0.25569690067420386
aF0.12910766708514304
aF0.19866871214015486
aF0.18204170461252306
aF0.17080138514220974
aa(lp39
F25.333808091162517
aF19.586342476184122
aF18.027694951859758
aF15.160326372181455
aF13.791994834016512
aF10.890763911892368
aF8.9878737026712461
aF7.6273978842603247
aF6.0374257615724272
aF5.243764994338636
aF4.56923960894534
aF4.0085431646491356
aF3.5984628123033819
aF2.8163998165224715
aF2.0869088879328261
aF1.5932027290803723
aF1.1841624520910792
aF1.0287855748474797
aF0.85828957259797212
aF0.73216831225812584
aF0.71745351541527436
aF0.49145276246633479
aF0.38871698179792213
aF0.021529426078895814
aF0.043491790857940887
aF0.25523661158435407
aF0.12858295313658838
aF0.1986549826200428
aF0.16855160416155499
aF0.18186542599855274
aaI168
aI268
aI134
a.