(lp1
I7363
a(lp2
(I0
I3
tp3
a(I0
I3
tp4
a(I0
I3
tp5
a(I0
I3
tp6
a(I0
I3
tp7
a(I0
I3
tp8
a(I0
I3
tp9
a(I0
I3
tp10
a(I0
I3
tp11
a(I0
I3
tp12
a(I0
I3
tp13
a(I0
I3
tp14
a(I0
I3
tp15
a(I0
I3
tp16
a(I0
I3
tp17
a(I0
I3
tp18
a(I0
I3
tp19
a(I0
I3
tp20
a(I0
I2
tp21
a(I0
I1
tp22
a(I0
I2
tp23
a(I0
I2
tp24
a(I0
I2
tp25
a(I0
I2
tp26
a(I0
I2
tp27
a(I0
I2
tp28
a(I0
I1
tp29
a(I0
I1
tp30
a(I0
I2
tp31
a(I0
I0
tp32
a(I0
I0
tp33
a(I0
I2
tp34
a(I0
I2
tp35
a(I0
I2
tp36
a(I0
I2
tp37
a(I0
I2
tp38
aa(lp39
F0.015242735689571352
aF0.024491137119196607
aF0.16099069155276324
aF0.21091493260343308
aF0.78988198876738358
aF0.015414002382711317
aF0.17597652720262003
aF0.0011132335054175879
aF0.54642638446711489
aF0.014386402223863913
aF0.0047098340613835887
aF8.5633346570551661e-05
aF0.004024767288816733
aF0.002226467010836064
aF0.21776560032908221
aF1.4131214851083449
aF0.042731039938738391
aF0.00042816673285273055
aF0.0082208012707794542
aF8.5633346571301061e-05
aF0.11158025058151655
aF0.0017126669314123932
aF0.48382840812399386
aF0.47055523940555188
aF0.23651930322804787
aF0.2744548757588321
aF0.013016268678733678
aF0.0042816673285308573
aF0.71889194446034221
aF0.010961068361039328
aa(lp40
F30.196211389986015
aF14.742358698509459
aF13.996148361950363
aF12.662425047897095
aF-5.7431677257586067
aF11.537596417922082
aF10.059031888796664
aF9.4985727686912966
aF7.7955223043656812
aF6.8973106129837181
aF4.9035678966998919
aF4.5018755397552548
aF4.3838789940487057
aF4.0220805431640692
aF3.3259496106292867
aF3.0389753448073984
aF2.4878492193332624
aF2.3278643722748162
aF2.1053372764581066
aF1.6625146148189143
aF1.2348937772191664
aF1.0889953618945227
aF0.90593262899119498
aF0.79225829379913237
aF0.72212570156600431
aF0.027720252516823415
aF0.12538652125606767
aF0.14852457425631665
aF0.2176551098392355
aF0.31036543269601713
aa(lp41
F32.499557936339102
aF16.935614276263063
aF14.046094248247943
aF12.666374195676005
aF11.538728635706761
aF10.391753428927943
aF9.6021551337605295
aF8.2905189392251053
aF7.4068572463124855
aF6.8509160695923335
aF4.6427638815206773
aF4.3948942660297412
aF4.2759612765833346
aF3.9823888950838713
aF3.099229275588018
aF2.9431773972106812
aF2.4432853232376028
aF2.3241916107929161
aF1.8947225406710599
aF1.4746761436553015
aF0.027713366467083063
aF0.11677270902519708
aF0.14844105586132042
aF0.20787718206882047
aF0.30534604593527853
aF0.48762832764845226
aF0.77906726587096775
aF1.0908905234383801
aF0.9058273050911293
aF0.95338048770066841
aaI167
aI266
aI133
a.