(lp1
I7891
a(lp2
(I0
I3
tp3
a(I0
I3
tp4
a(I0
I3
tp5
a(I0
I3
tp6
a(I0
I3
tp7
a(I0
I3
tp8
a(I0
I3
tp9
a(I0
I3
tp10
a(I0
I3
tp11
a(I0
I3
tp12
a(I0
I3
tp13
a(I0
I3
tp14
a(I0
I3
tp15
a(I0
I3
tp16
a(I0
I3
tp17
a(I0
I3
tp18
a(I0
I3
tp19
a(I0
I3
tp20
a(I0
I3
tp21
a(I0
I2
tp22
a(I0
I1
tp23
a(I0
I1
tp24
a(I0
I2
tp25
a(I0
I2
tp26
a(I0
I2
tp27
a(I0
I1
tp28
a(I0
I2
tp29
a(I0
I2
tp30
a(I0
I2
tp31
a(I0
I1
tp32
a(I0
I0
tp33
a(I0
I2
tp34
a(I0
I2
tp35
a(I0
I2
tp36
a(I0
I2
tp37
aa(lp38
F0.29542356946980497
aF0.020110769074291327
aF0.89923472522633197
aF0.12871237753406728
aF3.1099127434597307e-05
aF0.005255752536425462
aF0.0040947184455393734
aF0.00012439650973788177
aF0.038987939427014236
aF0.21166843610086758
aF0.0029233179788400732
aF0.0037318952921370219
aF0.0044368088473178968
aF0.01158960815724841
aF0.064351869443779117
aF0.024092321250553717
aF0.26777126199265416
aF0.26968385832987452
aF0.26073508441060467
aF0.38755214290047291
aF0.46164149468984461
aF0.00074637905842732995
aF0.0034831022726604655
aF0.091905696350720878
aF0.34285405813062819
aF0.0011195685876409659
aF0.71419923631448712
aF0.31237691324484718
aF0.4652584959834043
aF0.10284481442579579
aa(lp39
F21.18340182688906
aF17.322813222149875
aF15.174261928576716
aF14.526722001300355
aF12.145562805897091
aF-4.0479119600289852
aF10.459853380354062
aF9.9641982428721256
aF8.6900108912208616
aF8.1610260123859586
aF7.0690815971389895
aF6.7634335347205523
aF6.3143254389529275
aF5.9125962660672071
aF5.1784580221140422
aF4.6012061892964482
aF4.0925281200332115
aF3.9668539726686118
aF2.8981428136851166
aF2.7277725722041049
aF0.044343107098012195
aF0.20480774663040083
aF0.1099002718310657
aF0.13602089515944982
aF2.1465592780597453
aF1.7510197645203394
aF0.80377240792811777
aF0.92439218567203985
aF1.4315183346235385
aF1.2551530540028151
aa(lp40
F21.796294223761969
aF17.608990867276528
aF15.489652889030086
aF14.615411753239117
aF12.750655256328612
aF10.845000872775785
aF10.400448982682652
aF8.7567403023154853
aF8.1674418274178624
aF7.091778376523453
aF6.7933434103446668
aF6.3197944890749698
aF6.1443177547059173
aF5.4026814658435987
aF5.1342228880484244
aF4.3791414828034592
aF4.0665313004841517
aF3.1329452950829566
aF2.8814520384433662
aF2.4231140933530781
aF0.044296175896107605
aF0.20369380880833357
aF0.10989674662648583
aF0.13352908572426533
aF1.783159378889523
aF0.70228170875584761
aF0.89803598584773758
aF1.4769563280031905
aF1.3210035447379778
aF1.0412941167709053
aaI173
aI278
aI139
a.