(lp1
I7226
a(lp2
(I0
I3
tp3
a(I0
I3
tp4
a(I0
I3
tp5
a(I0
I3
tp6
a(I0
I3
tp7
a(I0
I3
tp8
a(I0
I3
tp9
a(I0
I3
tp10
a(I0
I3
tp11
a(I0
I3
tp12
a(I0
I2
tp13
a(I1
I2
tp14
a(I1
I2
tp15
a(I1
I2
tp16
aa(lp17
F0.008054962682070399
aF0.83383780356990478
aF0.70078175334014148
aF0.17989416656624613
aF1.241359248892441
aF0.26849875606902041
aF0.16378424120210333
aF1.552817805932504
aF0.47613779409572743
aF1.1086015306138712
aa(lp18
F29.651430773706856
aF23.937175582141592
aF19.627648025668194
aF-7.0375033308756301
aF12.419132508815688
aF9.78800336036457
aF7.5158764530933606
aF0.64009252953683593
aF1.5913410835602479
aF1.4300513607284606
aa(lp19
F33.845819287047448
aF24.622267016991469
aF21.495918253290796
aF18.094604844397089
aF12.216473136838454
aF0.19995271252673813
aF1.5371445228051568
aF1.2602992160525563
aF7.5895538432209202
aF5.6037942240476344
aaI58
aI88
aI44
a.