(lp1
I8865
a(lp2
(I0
I3
tp3
a(I0
I3
tp4
a(I0
I3
tp5
a(I0
I3
tp6
a(I0
I3
tp7
a(I0
I3
tp8
a(I0
I3
tp9
a(I0
I3
tp10
a(I0
I3
tp11
a(I0
I3
tp12
a(I0
I3
tp13
a(I0
I3
tp14
a(I0
I3
tp15
a(I0
I3
tp16
a(I0
I3
tp17
a(I0
I3
tp18
a(I0
I3
tp19
a(I0
I2
tp20
a(I0
I2
tp21
a(I0
I1
tp22
a(I0
I2
tp23
a(I0
I2
tp24
a(I0
I2
tp25
a(I0
I2
tp26
a(I0
I2
tp27
a(I0
I2
tp28
a(I0
I2
tp29
a(I0
I2
tp30
a(I0
I1
tp31
a(I0
I0
tp32
a(I0
I1
tp33
a(I0
I0
tp34
a(I0
I2
tp35
a(I0
I2
tp36
a(I0
I2
tp37
a(I0
I2
tp38
aa(lp39
F0.59917692611466222
aF0.00043938664833209629
aF0.29339311131580442
aF0.6936450555069904
aF0.33891356808348133
aF0.13131802296612993
aF0.022203671962584604
aF0.0076453276810539705
aF0.0014060372746746985
aF0.33832771921897109
aF0.0073524032487854996
aF0.41070934642160756
aF1.2459833649090606
aF0.19341800259767084
aF0.21568025944667246
aF0.0091392422853964206
aF0.23609709237271481
aF0.47512342906767779
aF0.031284329361541949
aF0.0019625936959020152
aF0.0018747163662347077
aF0.0056827339851467373
aF0.0057413188715873531
aF0.0038373100621367229
aF0.16494574778547394
aF0.0070008939301611783
aF0.011687684845751001
aF0.0026656123332404746
aF0.42737674661516545
aF0.029966169416537625
aa(lp40
F21.640420737973802
aF18.587478584011407
aF15.303433093863001
aF-4.1443557582272561
aF12.357120216561277
aF11.781671638070817
aF11.204188064438799
aF10.724274372606409
aF10.314866393436084
aF8.0955793054409497
aF7.7212478168404273
aF7.2528140291401737
aF7.0829364322212784
aF0.025727611226097513
aF0.072608457171646337
aF0.37231905235414742
aF0.72776601376726446
aF0.8761600979545402
aF1.150078871913552
aF1.4976441558729694
aF1.6829934904416379
aF2.1396817152817644
aF2.2726441438076663
aF4.9471284747133621
aF4.709823559127873
aF4.5871713099107145
aF4.1318286111275961
aF3.3088738593114391
aF3.5350438085955473
aF3.4623241676687937
aa(lp41
F25.287149497871351
aF18.650707293120959
aF15.395235499820833
aF12.433215668455599
aF12.352728740020508
aF11.769418131152058
aF10.748587584027051
aF10.347371761406293
aF8.2747426731456084
aF7.967149552995032
aF7.6827923088453742
aF7.1116445580855174
aF6.0670669536750506
aF4.9445329118991941
aF4.6979061783735778
aF4.2234655644213905
aF3.8866549396813803
aF3.5099385644554846
aF3.3737062246744074
aF0.025342281684232242
aF0.047369044960859384
aF2.5391162087234616
aF0.36673238485220272
aF0.64882449757398153
aF0.8658597931874058
aF0.98867310130972441
aF1.3084480625658037
aF1.6420180125435409
aF2.1858473831850862
aF1.9675817688190806
aaI175
aI282
aI141
a.