(lp1
I8516
a(lp2
(I0
I3
tp3
a(I0
I3
tp4
a(I0
I3
tp5
a(I0
I3
tp6
a(I0
I3
tp7
a(I0
I3
tp8
a(I0
I3
tp9
a(I0
I3
tp10
a(I0
I3
tp11
a(I0
I3
tp12
a(I0
I3
tp13
a(I0
I3
tp14
a(I0
I3
tp15
a(I0
I3
tp16
a(I0
I3
tp17
a(I0
I3
tp18
a(I0
I2
tp19
a(I0
I2
tp20
a(I0
I1
tp21
a(I0
I1
tp22
a(I0
I2
tp23
a(I0
I1
tp24
a(I0
I2
tp25
a(I0
I2
tp26
a(I0
I2
tp27
a(I0
I2
tp28
a(I0
I2
tp29
a(I0
I1
tp30
a(I0
I2
tp31
a(I0
I2
tp32
a(I0
I1
tp33
a(I0
I1
tp34
a(I0
I2
tp35
a(I0
I2
tp36
aa(lp37
F0.15643207736096695
aF4.1378674080494449e-05
aF0.12769458821213209
aF0.0021516910521817145
aF0.038316652198454704
aF0.88542086797249797
aF0.58296344978178283
aF0.00066205878528685647
aF0.0034344299486728236
aF4.1378674080507202e-05
aF0.013613583772454516
aF1.3829580451152903
aF0.003268915252351734
aF0.00066205878528668646
aF0.0026482351411457605
aF0.024330660359277993
aF0.074771264063290932
aF0.00033102939264314894
aF0.11108105056884732
aF0.02764095428571145
aF0.34836705708292692
aF0.00045516541488441198
aF0.00016551469632153371
aF0.00045516541488499485
aF0.041999354191612603
aF0.84716628378516978
aF0.73732659343873375
aF0.90788948799816604
aF0.15465279437551344
aF0.013737719794694354
aa(lp38
F21.451464202724846
aF14.004327366129072
aF-7.5307998972469008
aF11.705204234626835
aF11.247402041765698
aF10.801348234198585
aF8.4887423533876181
aF7.582343595134498
aF7.2867117610581911
aF5.8866461421356826
aF4.8732929312750066
aF4.522639265711117
aF3.2566709305639181
aF2.3427965764623164
aF2.1833450050959273
aF1.7181131326974601
aF1.3849478962817892
aF1.1717143582342646
aF0.90859802639938947
aF0.64535149090793198
aF0.61526181800229807
aF0.50725729482875015
aF0.0062402769196394647
aF0.39388960673062617
aF0.086430360033407233
aF0.10435716073932873
aF0.13201892695759096
aF0.31004134067721278
aF0.21600372013079591
aF0.2497693735852278
aa(lp39
F26.293715719917913
aF15.615160675423297
aF13.821828219139181
aF11.582519585647729
aF10.983493802739519
aF8.7362852535616042
aF8.1483955456443073
aF7.2870474386601174
aF6.5080382290981094
aF5.4194682106341938
aF4.6020147152943229
aF3.465696178574619
aF3.2267812358170489
aF2.1327618090302618
aF2.2297954073964528
aF1.3853467050118744
aF1.333451615535457
aF1.071172757418867
aF0.90768678356745647
aF0.62287589681020328
aF0.53268014810849129
aF0.49602075572906912
aF0.0061089005048044704
aF0.38888945008781561
aF0.084713883744686622
aF0.10434138611109181
aF0.12741118278264249
aF0.24432926521463039
aF0.21564066924501185
aF0.30235991834518433
aaI163
aI258
aI129
a.