(lp1
I6444
a(lp2
(I0
I3
tp3
a(I0
I3
tp4
a(I0
I3
tp5
a(I0
I3
tp6
a(I0
I3
tp7
a(I0
I3
tp8
a(I0
I3
tp9
a(I0
I3
tp10
a(I0
I3
tp11
a(I0
I3
tp12
a(I0
I3
tp13
a(I0
I3
tp14
a(I0
I3
tp15
a(I0
I3
tp16
a(I0
I3
tp17
a(I0
I3
tp18
a(I0
I3
tp19
a(I0
I3
tp20
a(I0
I3
tp21
a(I0
I3
tp22
a(I0
I3
tp23
a(I0
I1
tp24
a(I0
I1
tp25
a(I0
I1
tp26
a(I0
I2
tp27
a(I0
I2
tp28
a(I0
I2
tp29
a(I0
I2
tp30
a(I0
I2
tp31
a(I0
I1
tp32
a(I0
I2
tp33
a(I0
I1
tp34
a(I0
I2
tp35
a(I0
I2
tp36
aa(lp37
F0.0030660614200815894
aF0.27131190795846205
aF0.0053863241163585318
aF0.32295156403811198
aF2.7622174956221102e-05
aF1.0793226753058582
aF0.097699632818254445
aF0.00027622174955710399
aF2.762217495710928e-05
aF0.30948575374721798
aF0.00013811087477755279
aF0.48893321334681827
aF0.32465723334162705
aF0.0049996136669787083
aF0.0055520571660921531
aF0.0058282789156485215
aF0.0062357059962430128
aF0.78913791630892383
aF0.58782750523190164
aF0.0039775931936183451
aF0.49741322105821051
aF0.013258643978729334
aF0.42493263397449627
aF0.30735194073189331
aF0.14693615967675844
aF0.068917326514428612
aF0.15089994178290023
aF0.00088390959858219986
aF0.27232011734434675
aF0.059139076580118299
aa(lp38
F26.063946340975988
aF15.785616030749269
aF15.325913382120678
aF-5.584543681666986
aF12.914532430404632
aF11.716077968830364
aF10.636196432114321
aF10.299992596065614
aF8.3393512682660358
aF8.4785568283535131
aF7.7446314953545494
aF7.3762358573874591
aF5.3639923932520688
aF4.6784930713278712
aF4.2725067839537498
aF4.1332657613303025
aF3.8022094005414839
aF3.1476032752340348
aF2.4975235951651409
aF1.9346748579807271
aF1.4248549517611906
aF1.0924461750396663
aF0.8217264350705914
aF0.49566566072236778
aF0.34071735781849166
aF0.21991951208383037
aF0.0011737773053820694
aF0.11935303357589007
aF0.075669436938956378
aF0.089283976237812229
aa(lp39
F26.817688966139499
aF16.685819744079197
aF15.377650847805603
aF13.045150244539979
aF11.834818026154036
aF11.714253648979502
aF10.534399615816143
aF8.5243246948528206
aF8.3809131500222023
aF7.8187245649756276
aF7.5160481498391993
aF6.6729194596244552
aF5.3509233205716473
aF4.6666122085547306
aF4.176740873212279
aF3.853806539590888
aF3.0569434990721991
aF3.1604844938635828
aF2.0657464766515266
aF1.6036017573913737
aF1.3810455200400826
aF1.0918408914263069
aF0.59472114220248762
aF0.4886228335195052
aF0.33589572216493041
aF0.21960949344491004
aF0.001168401401493062
aF0.11744804805398384
aF0.073878708024230549
aF0.087739509305178695
aaI172
aI276
aI138
a.