(lp1
I6351
a(lp2
(I0
I3
tp3
a(I0
I3
tp4
a(I0
I3
tp5
a(I0
I3
tp6
a(I0
I3
tp7
a(I0
I3
tp8
a(I0
I3
tp9
a(I0
I3
tp10
a(I0
I3
tp11
a(I0
I3
tp12
a(I0
I3
tp13
a(I0
I3
tp14
a(I0
I3
tp15
a(I0
I3
tp16
a(I0
I3
tp17
a(I0
I3
tp18
a(I0
I3
tp19
a(I0
I3
tp20
a(I0
I3
tp21
a(I0
I3
tp22
a(I0
I2
tp23
a(I0
I2
tp24
a(I0
I2
tp25
a(I0
I2
tp26
a(I0
I0
tp27
a(I0
I1
tp28
a(I0
I2
tp29
a(I0
I2
tp30
a(I0
I2
tp31
a(I0
I2
tp32
a(I0
I2
tp33
a(I0
I2
tp34
a(I0
I2
tp35
a(I0
I2
tp36
a(I0
I2
tp37
aa(lp38
F0.0013954440989039085
aF0.0036739953328641661
aF0.3930469956640632
aF0.0016971161927408218
aF0.00019381168040411012
aF0.010125396311852608
aF0.51030527520517044
aF0.015400444656750167
aF0.060596962153121048
aF0.35794624217575
aF0.35052575348485604
aF0.39933955166734325
aF0.041288262828077293
aF0.0029678466886076116
aF0.26301483373797829
aF1.0644428388459346
aF0.028393227992245862
aF3.8762336079578574e-05
aF0.00096905840201699789
aF0.00050391036905139686
aF0.21068707224907079
aF0.068146165247727986
aF0.22439465064782738
aF0.13675982332001713
aF0.00019381168040233376
aF0.0034414213163813656
aF0.0025364050348510858
aF0.41545640343157686
aF0.037774885719572993
aF0.66480467796877241
aa(lp39
F16.871680128340682
aF14.035827963739465
aF12.832679057269715
aF12.960652674380592
aF11.951728201712079
aF9.3304455166092328
aF-3.1151447070701952
aF7.5925607936191026
aF6.9811041202502402
aF5.4271669746621489
aF5.1351031615323954
aF4.8027662240492868
aF4.4694363274954751
aF3.6980169511607128
aF3.5042170067151144
aF3.1613573693394179
aF2.7425178281333307
aF2.4424652489818084
aF1.8967188726198605
aF1.8388116373794294
aF1.2836311302828025
aF1.2247156760066558
aF1.0397532750866105
aF0.75798654968648427
aF0.018194478010283902
aF0.44267459736704046
aF0.095238021349751512
aF0.29829870209489084
aF0.25559710433017746
aF0.17142820624372526
aa(lp40
F19.137208799586492
aF15.038566924082597
aF13.22067632244363
aF12.85262035631224
aF12.259039210098679
aF9.448200631228417
aF7.670160875179179
aF7.5901850005324274
aF5.9354095284189752
aF5.2975785152242958
aF4.8113542850942137
aF4.6166288435047207
aF4.1494217724369085
aF3.5296170305470458
aF3.2638900872734
aF3.0789772484982478
aF2.478122051297893
aF2.1280114081931014
aF1.8693719279523966
aF1.648882805694458
aF1.2255188662757117
aF1.1521079192560535
aF0.95191681769492298
aF0.67270776756631812
aF0.43700915718294492
aF0.013018556358749834
aF0.27227378166482502
aF0.095127705195252751
aF0.20832043553845114
aF0.16863769888856278
aaI167
aI266
aI133
a.