(lp1
I521
a(lp2
(I0
I3
tp3
a(I0
I3
tp4
a(I0
I3
tp5
a(I0
I3
tp6
a(I0
I3
tp7
a(I0
I3
tp8
a(I0
I3
tp9
a(I0
I3
tp10
a(I0
I3
tp11
a(I0
I3
tp12
a(I0
I3
tp13
a(I0
I3
tp14
a(I0
I3
tp15
a(I0
I3
tp16
a(I0
I3
tp17
a(I0
I3
tp18
a(I0
I3
tp19
a(I0
I3
tp20
a(I0
I2
tp21
a(I0
I2
tp22
a(I0
I2
tp23
a(I0
I1
tp24
a(I0
I1
tp25
a(I0
I2
tp26
a(I0
I0
tp27
a(I0
I1
tp28
a(I0
I2
tp29
a(I0
I0
tp30
a(I0
I1
tp31
a(I0
I1
tp32
a(I0
I2
tp33
a(I0
I2
tp34
a(I0
I2
tp35
a(I0
I2
tp36
a(I0
I2
tp37
a(I0
I2
tp38
aa(lp39
F0.71974686699310664
aF0.071155494478328529
aF0.20147461141062251
aF0.01277551166979808
aF0.011862306106890874
aF0.14171584430561707
aF0.00089915624655493675
aF0.058295296651628803
aF0.55871594451442863
aF0.31894875060893202
aF7.0246581762084732e-05
aF5.6197265410201647e-05
aF0.31777797424623055
aF0.0065797631583819349
aF1.4049316352654495e-05
aF0.014864176700857004
aF0.41588903344060851
aF0.49125893256587466
aF0.0019013408130270082
aF0.19493465464857201
aF0.00047767675598217845
aF0.0029082084849503097
aF0.0058538818135070447
aF1.4049316352416621e-05
aF0.96236451108299459
aF1.0556308976885147
aF1.4049316352423777e-05
aF0.09951169798295674
aF0.0047861337707231777
aF0.0068104061018341181
aa(lp40
F19.171678310720651
aF16.144632612496927
aF-6.6830654927835038
aF12.924612142944781
aF10.485831641387175
aF10.219808115347135
aF9.5900210257862479
aF8.5210940295095394
aF7.2061889415649958
aF6.7768299464764672
aF6.1229908485051538
aF5.249588720068024
aF4.7454261055744889
aF3.5704724077291479
aF3.3474083333628983
aF2.6539326920222757
aF2.5385060269868531
aF1.6480543933121237
aF1.5897361730890223
aF0.95838174353994088
aF0.865765586776158
aF0.65192413430494145
aF0.43375018009704458
aF0.26633568778572858
aF0.0057116895740482992
aF0.15340395161980738
aF0.12790558039500938
aF0.058494400740210922
aF0.065873736289683654
aF0.06286361421182797
aa(lp41
F20.912682647755908
aF16.319341107266379
aF12.924612983997624
aF12.434006962538511
aF10.478993139346493
aF9.6199960048294617
aF8.9058140623139241
aF7.2080171976999985
aF6.8211523153132125
aF6.130000422517039
aF5.2999738255190545
aF4.8894662837443947
aF3.6445090209296511
aF3.5014169795511401
aF2.9844567041714756
aF2.602573958273763
aF2.5144484277535351
aF1.6173180122061483
aF1.5846879545595745
aF0.95725014416515197
aF0.79039976298952797
aF0.65090355369249298
aF0.37248637018584368
aF0.25890937186615404
aF0.0057116613930854685
aF0.15337943172801688
aF0.12627177757544331
aF0.058491860662647291
aF0.065872415881064197
aF0.062753158719496549
aaI164
aI260
aI130
a.