(lp1
I9497
a(lp2
(I0
I3
tp3
a(I0
I3
tp4
a(I0
I3
tp5
a(I0
I3
tp6
a(I0
I3
tp7
a(I0
I3
tp8
a(I0
I3
tp9
a(I0
I3
tp10
a(I0
I3
tp11
a(I0
I3
tp12
a(I0
I3
tp13
a(I0
I3
tp14
a(I0
I3
tp15
a(I0
I3
tp16
a(I0
I3
tp17
a(I0
I2
tp18
a(I0
I2
tp19
a(I0
I2
tp20
a(I0
I2
tp21
a(I0
I2
tp22
a(I0
I2
tp23
a(I0
I2
tp24
a(I0
I2
tp25
a(I0
I2
tp26
a(I0
I2
tp27
a(I0
I2
tp28
a(I0
I1
tp29
a(I0
I0
tp30
a(I0
I2
tp31
a(I0
I2
tp32
a(I0
I1
tp33
a(I0
I2
tp34
a(I0
I2
tp35
a(I0
I2
tp36
a(I0
I2
tp37
aa(lp38
F0.050387938969024937
aF0.009251556007428885
aF0.0058766261373692785
aF0.0043425671055281612
aF0.73276099724137245
aF0.56342448103398013
aF0.40945215605322804
aF0.00082603178637574715
aF0.20582352025708606
aF0.45025812630026985
aF0.90587365875790926
aF0.0016520635727479416
aF0.0038941498500650873
aF0.00070802724546314977
aF9.4403632728834452e-05
aF0.0020296781036694966
aF0.036062187702427195
aF0.0017936690218558482
aF0.015930613022994922
aF4.7201816364417226e-05
aF0.0043897689218894698
aF0.41889251932611371
aF0.010006785069256452
aF0.056854587810951096
aF0.0037997462173380292
aF0.28519337447387239
aF0.54147563642453167
aF0.005687818871913386
aF0.0012980499500168108
aF0.76268694881642318
aa(lp39
F20.971347606509852
aF19.414354826122029
aF13.765866108301234
aF12.138944200385229
aF11.183432161811149
aF-3.5770152810887028
aF9.8301196593341018
aF9.617264245302346
aF8.0918549976422991
aF7.804843607861998
aF6.9641188688692743
aF5.8116123253260978
aF5.27907089585816
aF4.7306279503696054
aF3.9067140175337176
aF3.5487421772228913
aF3.3273100264184765
aF2.6242368381439221
aF2.3799192182504796
aF2.1178609059714666
aF1.8288838992994776
aF1.4491493671111413
aF1.1765463870903605
aF0.92450692064755691
aF0.71816714902115175
aF0.40870787756598265
aF0.0020423938798440106
aF0.053196628763339061
aF0.18496550448171967
aF0.10417361895610773
aa(lp40
F22.836751633344722
aF19.672942581676313
aF15.908097990096234
aF12.142025733272686
aF11.764197605311848
aF10.088425108861443
aF9.80762226571653
aF9.3199511015896928
aF7.3301182494961061
aF7.8074337881461267
aF6.2534126616030088
aF5.3060318703155618
aF4.8521375905966293
aF4.1958085651057004
aF3.5556249499976134
aF3.382882365417518
aF2.8481748748784486
aF2.4939197263382935
aF2.2397693741548084
aF2.1158874837369774
aF1.4526015094753537
aF1.32155342508153
aF0.9778367330478448
aF0.74903849817044532
aF0.53027134959613398
aF0.39343571051516868
aF0.0020078846212826479
aF0.053178686076496548
aF0.18463915198106765
aF0.10415493259645509
aaI173
aI278
aI139
a.