(lp1
I8100
a(lp2
(I0
I3
tp3
a(I0
I3
tp4
a(I0
I3
tp5
a(I0
I3
tp6
a(I0
I3
tp7
a(I0
I3
tp8
a(I0
I3
tp9
a(I0
I3
tp10
a(I0
I3
tp11
a(I0
I3
tp12
a(I0
I3
tp13
a(I0
I3
tp14
a(I0
I3
tp15
a(I0
I3
tp16
a(I0
I3
tp17
a(I0
I3
tp18
a(I0
I2
tp19
a(I0
I2
tp20
a(I0
I2
tp21
a(I0
I2
tp22
a(I0
I2
tp23
a(I0
I2
tp24
a(I0
I1
tp25
a(I0
I2
tp26
a(I0
I2
tp27
a(I0
I2
tp28
a(I0
I2
tp29
a(I0
I0
tp30
a(I0
I2
tp31
a(I0
I2
tp32
a(I0
I1
tp33
a(I0
I2
tp34
a(I0
I2
tp35
a(I0
I1
tp36
a(I0
I2
tp37
aa(lp38
F0.33683550887332414
aF0.0026582075561893959
aF0.015716409638778295
aF0.27534734679061246
aF8.7313386881504584e-05
aF0.35430424967938978
aF1.1958024438153187
aF0.0077854436636370927
aF0.2281490714655896
aF0.0001091417335992162
aF0.023487301071282829
aF0.00013097008032403323
aF0.00028376850736933079
aF0.00039291024098320193
aF0.0010720143611600008
aF0.00013097008032462998
aF0.00019645512048427349
aF0.7088834422074366
aF0.094333726781754779
aF0.74602147718046763
aF0.14544335214187321
aF0.0030559685408775294
aF0.1302497448813511
aF1.511239469444253
aF0.69675173217455066
aF0.014748686267498812
aF0.11003669581814801
aF0.0086828312510530137
aF0.0098882410643970076
aF0.0027018642496301482
aa(lp39
F-10.912517407878887
aF17.617822938129702
aF13.3230027313958
aF11.43543534314872
aF10.487995910340189
aF9.4802372377236548
aF8.575745016263415
aF7.5735994205338182
aF6.9205056337968367
aF6.4148851381157685
aF5.7149479837668746
aF5.3981487607191081
aF4.7472041011547566
aF4.1056324097316059
aF3.2382549458060779
aF2.5178147130064832
aF1.900269185546245
aF1.4491878458922114
aF0.89331821209657547
aF0.56280666769676813
aF0.45844742863994487
aF0.039311711288070109
aF0.029287891387839441
aF0.0017768455514824665
aF0.0021642265918414309
aF0.26498588246580229
aF0.22759064763650136
aF0.21186148459105908
aF0.15341204781156428
aF0.17114538526022666
aa(lp40
F17.761345819542495
aF16.385197241034771
aF12.387351924317613
aF11.171462049449902
aF10.479173103112487
aF9.2855238760205232
aF8.5408045332499825
aF7.4650113043527249
aF6.5554694688616904
aF6.0883079347249396
aF5.5417388679059352
aF5.0014910291497232
aF4.3973944124252666
aF3.5399945982393075
aF2.7212554590371623
aF2.2833815371362163
aF1.8826028312623009
aF1.2666257983794194
aF0.89131554818205272
aF0.54776524763503343
aF0.45738489181625902
aF0.0017231556518050009
aF0.0021531989274663392
aF0.029242635363823911
aF0.038188774762524441
aF0.26359635358879802
aF0.22759011515416974
aF0.20914743962513541
aF0.15335143616296448
aF0.17098428490356798
aaI166
aI264
aI132
a.