(lp1
I1496
a(lp2
(I0
I3
tp3
a(I0
I3
tp4
a(I0
I3
tp5
a(I0
I3
tp6
a(I0
I3
tp7
a(I0
I3
tp8
a(I0
I3
tp9
a(I0
I3
tp10
a(I0
I3
tp11
a(I0
I3
tp12
a(I0
I3
tp13
a(I0
I3
tp14
a(I0
I3
tp15
a(I0
I3
tp16
a(I0
I3
tp17
a(I0
I2
tp18
a(I0
I1
tp19
a(I0
I2
tp20
a(I0
I2
tp21
a(I0
I2
tp22
a(I0
I2
tp23
a(I0
I2
tp24
a(I0
I2
tp25
a(I0
I2
tp26
a(I0
I2
tp27
a(I0
I2
tp28
a(I0
I1
tp29
a(I0
I1
tp30
a(I0
I0
tp31
a(I0
I1
tp32
a(I0
I2
tp33
a(I0
I1
tp34
a(I0
I2
tp35
a(I0
I2
tp36
a(I0
I2
tp37
aa(lp38
F0.013786481905727288
aF0.029693961027719817
aF0.00070699907209181845
aF0.34837379277163755
aF0.00070699907208855717
aF0.028103213115521442
aF0.00070699907208404689
aF0.55587802042963252
aF0.0017674976802268816
aF0.01891222517836888
aF0.013256232601660548
aF0.0030047460563764061
aF0.025098467059145424
aF0.29552561213301448
aF0.001767497680221275
aF0.0015907479121963775
aF0.0035349953604419948
aF0.0005302493040661993
aF1.064210353261315
aF0.0015907479121999302
aF0.00070699907208829349
aF0.31832633220787709
aF0.085546887722716569
aF0.19477824436040025
aF0.0017674976802224407
aF0.58822322797767934
aF0.95038350265504512
aF0.89930281969665149
aF0.004772243736597348
aF0.0031814958243985281
aa(lp39
F22.709459003052238
aF15.310827498411227
aF13.07550958418356
aF11.101795111779268
aF10.501285514691999
aF-5.9060589292678749
aF8.4068551726784069
aF6.1797961159204631
aF4.7729147102530538
aF4.1716592098599792
aF3.3495374734336103
aF3.0665118416352106
aF2.3603100756452045
aF1.9633160517602795
aF1.8065888195006183
aF1.7110435441847036
aF1.7442132122661935
aF1.5401473146245881
aF1.423001546483734
aF0.0096404594211062025
aF1.0055705535900266
aF0.90285308581381984
aF0.80476403350571601
aF0.74400269944151143
aF0.27542702766675092
aF0.50999329292001783
aF0.32105201046672444
aF0.36522484551741619
aF0.3936285830905078
aF0.44482057066340386
aa(lp40
F22.88660160801733
aF17.779544201789722
aF14.557282053937302
aF11.570904339774028
aF10.569653240289693
aF8.6081597223360635
aF6.8846165954936343
aF5.7411920709321391
aF4.2686122789459615
aF4.0489157773723292
aF3.3033734302127837
aF2.5408844750456994
aF2.3568754716973292
aF1.8771259902308377
aF1.7969545290501259
aF1.7408687370010185
aF1.555022615670826
aF1.4494244979206852
aF1.4171181549586229
aF0.0092113855326350514
aF0.96880673446682541
aF0.88521519452542885
aF0.79234457812644676
aF0.72784151259799146
aF0.27124964143272523
aF0.28075009268893875
aF0.32587870171071359
aF0.47609300624262474
aF0.43472735799146689
aF0.37207888079706242
aaI168
aI268
aI134
a.