(lp1
I2658
a(lp2
(I0
I3
tp3
a(I0
I3
tp4
a(I0
I3
tp5
a(I0
I3
tp6
a(I0
I3
tp7
a(I1
I3
tp8
a(I0
I3
tp9
a(I0
I3
tp10
a(I0
I3
tp11
a(I0
I3
tp12
a(I1
I2
tp13
a(I0
I0
tp14
a(I1
I2
tp15
a(I1
I2
tp16
a(I1
I2
tp17
aa(lp18
F0.99103608411939637
aF0.11988339727250757
aF0.063937811878670647
aF1.2595748940098141
aF1.8829685598268526
aF1.4002380801428902
aF1.0230049900587324
aF0.34046884825392132
aF0.20140410741781301
aF0.31809061409638817
aa(lp19
F78.788754058495641
aF45.955146176281922
aF-18.106527685797083
aF30.332183354138692
aF12.452045481086412
aF0.1756530251267629
aF3.5469593976347737
aF3.8687209189968024
aF1.443925474783762
aF1.8935640905079147
aa(lp20
F79.09915664726492
aF49.608991865627225
aF30.335203562615067
aF19.975781713568143
aF9.730868637039082
aF3.5528812465879249
aF0.17563393421762691
aF2.3503476689653531
aF1.4270242938407112
aF1.6848638588577476
aaI56
aI84
aI42
a.