(lp1
I6367
a(lp2
(I0
I3
tp3
a(I0
I3
tp4
a(I0
I3
tp5
a(I0
I3
tp6
a(I0
I3
tp7
a(I0
I3
tp8
a(I0
I3
tp9
a(I0
I3
tp10
a(I0
I3
tp11
a(I0
I3
tp12
a(I0
I3
tp13
a(I0
I3
tp14
a(I0
I3
tp15
a(I0
I3
tp16
a(I0
I3
tp17
a(I0
I3
tp18
a(I0
I3
tp19
a(I0
I3
tp20
a(I0
I2
tp21
a(I0
I2
tp22
a(I0
I2
tp23
a(I0
I1
tp24
a(I0
I1
tp25
a(I0
I2
tp26
a(I0
I1
tp27
a(I0
I2
tp28
a(I0
I1
tp29
a(I0
I1
tp30
a(I0
I2
tp31
a(I0
I2
tp32
a(I0
I2
tp33
a(I0
I1
tp34
a(I0
I2
tp35
a(I0
I2
tp36
aa(lp37
F0.027756464370658325
aF0.04287137071111502
aF0.095773542902714545
aF0.046718801415957634
aF0.49274594669891258
aF0.002748164789174095
aF0.38543011168166114
aF0.08986498860599168
aF0.0030229812680913071
aF0.0010992659156701112
aF0.74667637321859448
aF0.037649857611684656
aF0.064307056066673168
aF0.011542292114530728
aF0.028855730286327683
aF0.01690121345342048
aF0.00027481647891663963
aF1.229254110197564
aF0.43022519774519746
aF0.010992659156696283
aF0.11226253163775946
aF0.17052362516825126
aF0.4769439991611627
aF0.046581393176500757
aF0.3821323139346533
aF0.019237153524218606
aF0.55018259079264764
aF0.18041701840927726
aF0.013603415706411801
aF0.66862849320604878
aa(lp38
F22.215316943785115
aF20.470523784330464
aF19.724665041101481
aF14.509887808956549
aF13.299835988801137
aF-4.8757134910860032
aF11.046486351406742
aF10.024241630818679
aF9.7885033703089146
aF8.1426152017469491
aF7.2262708536106146
aF6.7124636931034232
aF5.7098317520288449
aF5.0092317883838957
aF4.6200893385533179
aF3.8668475648238352
aF3.6660998423800497
aF3.2939840393409519
aF3.0138966389130983
aF0.011513061903269183
aF0.08288545430930927
aF0.26714506110119723
aF0.48758302816497701
aF0.72312527940173943
aF2.4188278488624784
aF2.1558594712988839
aF1.748854833773748
aF1.8418904726323937
aF1.3766933226773552
aF1.4531677262928879
aa(lp39
F26.141996230393197
aF20.47742285687837
aF19.808757086894129
aF14.700533421640529
aF13.666889379865751
aF13.134824882613309
aF10.02891230053954
aF9.7923982073071407
aF8.7602047131469156
aF7.8555654425420336
aF7.0412437266185917
aF5.7188557329022123
aF5.1227486567539628
aF4.6857958855788455
aF4.2634529300730462
aF3.6681574732461364
aF3.4467691464117038
aF0.011392836683193852
aF0.072140866349590632
aF0.2596744740969153
aF0.47673514158779678
aF0.59908110376003043
aF3.0221204128640542
aF2.5442973524128885
aF2.2891607598230919
aF1.8750694550689697
aF1.8260037109448319
aF1.2860978470205775
aF1.5008623364411489
aF1.4524375467678643
aaI178
aI288
aI144
a.