(lp1
I4388
a(lp2
(I0
I3
tp3
a(I0
I3
tp4
a(I0
I3
tp5
a(I0
I3
tp6
a(I0
I3
tp7
a(I0
I3
tp8
a(I0
I3
tp9
a(I0
I3
tp10
a(I0
I3
tp11
a(I0
I3
tp12
a(I0
I3
tp13
a(I0
I3
tp14
a(I0
I3
tp15
a(I0
I3
tp16
a(I0
I3
tp17
a(I0
I3
tp18
a(I0
I2
tp19
a(I0
I2
tp20
a(I0
I2
tp21
a(I0
I2
tp22
a(I0
I2
tp23
a(I0
I2
tp24
a(I0
I2
tp25
a(I0
I1
tp26
a(I0
I1
tp27
a(I0
I0
tp28
a(I0
I2
tp29
a(I0
I2
tp30
a(I0
I2
tp31
a(I0
I2
tp32
a(I0
I2
tp33
a(I0
I2
tp34
a(I0
I2
tp35
a(I0
I2
tp36
a(I0
I2
tp37
aa(lp38
F0.0021062750320584023
aF0.0017164773800195654
aF0.70836002739791937
aF0.2001049204737706
aF0.00019147954837084313
aF0.011187876468984559
aF0.46824174293386711
aF0.0013266797279842812
aF0.01274022852183021
aF0.0032141209904791301
aF0.012931708070217596
aF0.016480918270326939
aF0.00023934943545977916
aF0.023251088016227328
aF4.7869887085383311e-05
aF0.73085398964892123
aF0.090840437781048639
aF4.7869887093121045e-05
aF0.0085140013471183273
aF0.38977029781556904
aF1.1005628970269452
aF0.011304131909067205
aF0.48990237837486095
aF0.0022020148062429357
aF0.01287211494545451
aF0.041561808297244006
aF0.5217719999406385
aF0.40387628352423821
aF0.013895944367346414
aF0.01379336603786252
aa(lp39
F22.97711596408471
aF19.326304589974523
aF16.272080670401799
aF12.451814650555285
aF-5.1434564758800674
aF10.417054261412805
aF8.2751749555775511
aF6.926012535001548
aF7.1215177814197226
aF5.8090685665141395
aF5.250821469015218
aF4.7303368882312355
aF3.9718112277822777
aF3.3384369448971389
aF2.9768037991564444
aF2.783899549464834
aF2.5130945507639795
aF2.5531379044375759
aF2.0550283526271378
aF1.7049460257008826
aF1.8241964009471203
aF0.96254531667128007
aF0.87367823043430159
aF0.76238478720431302
aF0.00063569281988962189
aF0.29708514536628861
aF0.26377747664582651
aF0.23214362229918165
aF0.12068210130012508
aF0.11217128754739034
aa(lp40
F22.993240999875241
aF21.939284705457688
aF17.526535216707828
aF12.845731527318042
aF10.666895103377779
aF8.2780835060168485
aF7.950294112481985
aF7.0754825672523811
aF6.0631187736223024
aF5.5828572167260653
aF4.7501611904814594
aF3.9718116250222311
aF3.440659788059238
aF3.0267577608371989
aF2.7844270653346483
aF2.5936605144215359
aF2.5435110761333868
aF2.2248946808152112
aF1.9843719569005878
aF1.696752145672102
aF1.8187720875147544
aF0.95515058685351639
aF0.83497874643188985
aF0.58116585440892221
aF0.00063241727697877295
aF0.29618424045264646
aF0.26198830285372043
aF0.22413749541527064
aF0.12051482904260288
aF0.11128750542983692
aaI170
aI272
aI136
a.