(lp1
I5220
a(lp2
(I0
I3
tp3
a(I0
I3
tp4
a(I0
I3
tp5
a(I0
I3
tp6
a(I0
I3
tp7
a(I0
I3
tp8
a(I0
I3
tp9
a(I0
I3
tp10
a(I0
I3
tp11
a(I0
I3
tp12
a(I0
I3
tp13
a(I0
I3
tp14
a(I0
I3
tp15
a(I0
I3
tp16
a(I0
I3
tp17
a(I0
I3
tp18
a(I0
I3
tp19
a(I0
I3
tp20
a(I0
I3
tp21
a(I0
I1
tp22
a(I0
I2
tp23
a(I0
I2
tp24
a(I0
I2
tp25
a(I0
I1
tp26
a(I0
I1
tp27
a(I0
I1
tp28
a(I0
I1
tp29
a(I0
I2
tp30
a(I0
I2
tp31
a(I0
I2
tp32
a(I0
I2
tp33
a(I0
I1
tp34
a(I0
I2
tp35
a(I0
I2
tp36
aa(lp37
F0.17785547119703926
aF1.0585131356124977
aF0.056180990398569941
aF0.019491010542138434
aF0.0051960632369450477
aF0.19868591137359218
aF9.2374457545674193e-05
aF0.0030714507133945412
aF0.14412724738566754
aF0.034455672664543503
aF0.17345036425282823
aF0.0042954122758753766
aF0.050419133609158839
aF9.2374457545878891e-05
aF0.0054500929951943888
aF2.3093614386571204e-05
aF0.0018243955365275788
aF0.0008313701179103461
aF0.0027481401119833215
aF0.87239592386871734
aF0.70175720716743684
aF0.43540700564162371
aF0.0052191568513308972
aF0.1710139879350594
aF0.00053115313088758498
aF0.21201092687455908
aF0.50764960484595467
aF0.32689588504341632
aF0.52668451650396131
aF0.078576022949806035
aa(lp38
F19.394015071801668
aF15.276339678261193
aF13.225311899307044
aF-5.593937330195673
aF11.235257193934759
aF10.437996638267048
aF9.714658840544951
aF9.0739376708853872
aF7.9957021381477791
aF7.6195509645835653
aF6.7395588563411666
aF5.3910636770384919
aF5.1641392600931333
aF4.2091509278009855
aF3.8577999614914118
aF3.4346142917062323
aF2.7236631588742721
aF2.3476806733044397
aF2.251932249132131
aF2.1347187627072177
aF1.5291277339122624
aF0.96468183757864223
aF0.6892940798830256
aF0.57340973533728123
aF0.37206449289160604
aF0.0022295240650431185
aF0.079423194191196117
aF0.20410038789099036
aF0.15392402593465274
aF0.14426619099022794
aa(lp39
F19.48930387392117
aF15.958519089630137
aF14.319806853884531
aF12.151235943537008
aF11.209512280701798
aF10.393267816046828
aF9.0814064381805668
aF8.0292161527300028
aF7.912461480491805
aF6.9860677289247137
aF5.5097792601698883
aF5.2595254864129561
aF5.1593532248660168
aF3.960285073802003
aF3.4767387831346119
aF2.9041467116093362
aF2.4494953800890924
aF2.2789684599066433
aF2.150077455764424
aF1.9279539303364441
aF1.4210523423916004
aF0.80071975159302544
aF0.68014359915919465
aF0.56893406896498355
aF0.36724632146028208
aF0.0022208464274095499
aF0.079066697408641862
aF0.2013546897473332
aF0.15385052447212824
aF0.12499316142540669
aaI175
aI282
aI141
a.