(lp1
I3541
a(lp2
(I0
I3
tp3
a(I0
I3
tp4
a(I0
I3
tp5
a(I0
I3
tp6
a(I0
I3
tp7
a(I0
I3
tp8
a(I0
I3
tp9
a(I0
I3
tp10
a(I0
I3
tp11
a(I0
I3
tp12
a(I0
I3
tp13
a(I0
I3
tp14
a(I0
I3
tp15
a(I0
I3
tp16
a(I0
I3
tp17
a(I0
I2
tp18
a(I0
I2
tp19
a(I0
I2
tp20
a(I0
I2
tp21
a(I0
I0
tp22
a(I0
I1
tp23
a(I0
I2
tp24
a(I0
I2
tp25
a(I0
I2
tp26
a(I0
I1
tp27
a(I0
I2
tp28
a(I0
I2
tp29
a(I0
I1
tp30
a(I0
I2
tp31
a(I0
I1
tp32
a(I0
I2
tp33
a(I0
I2
tp34
a(I0
I2
tp35
a(I0
I1
tp36
a(I0
I2
tp37
aa(lp38
F0.29811269703214949
aF0.05467363297348582
aF0.037894483543691848
aF0.006032952603972852
aF0.0065985419105929477
aF0.015836500585423519
aF0.58811861400271304
aF0.028279465331113585
aF0.002073827457615085
aF0.0018852976887402395
aF1.0463978235694458
aF0.043738906378789189
aF0.0050274605033093778
aF0.059386877195338528
aF0.32277867512650849
aF0.012065905207941707
aF0.0015082381509922138
aF0.036574775161573037
aF0.095019003512539779
aF0.00075411907549582935
aF0.00075411907549616242
aF1.1055123799875191
aF0.0018852976887400175
aF0.51294236866417142
aF0.048452150600641009
aF0.0024508869953627777
aF0.051657156671499393
aF0.54697722888396694
aF0.018664447118535321
aF1.5730714437332813
aa(lp39
F27.824744975395035
aF23.388965871481947
aF19.708380321322458
aF15.655427573590595
aF13.380523764325641
aF-8.0019502253255101
aF11.378799952225824
aF6.6859834939989051
aF6.0192521313597416
aF4.8863712445617944
aF4.6929071834624407
aF4.3396621598997163
aF3.1029716474522235
aF2.9302595842442298
aF2.6687264402024962
aF2.5923552705888957
aF2.2115765728346841
aF0.0041149942548370684
aF0.090922250146739325
aF1.888167632972493
aF1.6960803476215873
aF0.37207803833518216
aF0.46174618462461808
aF0.54150857944031527
aF0.71054778254645168
aF1.3284577573734115
aF0.90330448822754539
aF1.1719305558168711
aF1.0546306531213843
aF1.0213983835965013
aa(lp40
F31.915324229907704
aF26.485859068998103
aF19.719544494323419
aF16.154795082222911
aF14.982970927697302
aF11.561023706004496
aF8.4624013051523974
aF6.6568334551783082
aF5.7294989949093527
aF4.8587911215643746
aF4.4290451781316911
aF3.2558508314383068
aF3.0812604321298127
aF2.8894260850236138
aF2.5175837544034012
aF2.5933934962568812
aF0.0041142011495601616
aF0.063630453209799917
aF2.009963203672644
aF1.8868827103230075
aF1.6827879005863497
aF0.33293927572318138
aF0.45865621975531118
aF0.50567745874872716
aF0.70906124591010677
aF1.3220407677410375
aF0.88227658588353519
aF1.1715982797304849
aF1.0452788007851155
aF1.0205864039000847
aaI170
aI272
aI136
a.