(lp1
I7685
a(lp2
(I0
I3
tp3
a(I0
I3
tp4
a(I0
I3
tp5
a(I0
I3
tp6
a(I0
I3
tp7
a(I0
I3
tp8
a(I0
I3
tp9
a(I0
I3
tp10
a(I0
I3
tp11
a(I0
I3
tp12
a(I0
I3
tp13
a(I0
I3
tp14
a(I0
I3
tp15
a(I0
I3
tp16
a(I0
I3
tp17
a(I0
I3
tp18
a(I0
I3
tp19
a(I0
I3
tp20
a(I0
I2
tp21
a(I0
I1
tp22
a(I0
I2
tp23
a(I0
I2
tp24
a(I0
I2
tp25
a(I0
I2
tp26
a(I0
I1
tp27
a(I0
I1
tp28
a(I0
I0
tp29
a(I0
I1
tp30
a(I0
I2
tp31
a(I0
I2
tp32
a(I0
I0
tp33
a(I0
I2
tp34
a(I0
I2
tp35
a(I0
I2
tp36
a(I0
I2
tp37
a(I0
I2
tp38
aa(lp39
F0.069980836361539289
aF0.26979081150975692
aF0.00011058700067123617
aF0.00099528300603068942
aF0.2963645221864013
aF0.24882075150769367
aF0.041674020033768355
aF0.0034558437709399925
aF0.016867973445958695
aF0.0052252357816628958
aF0.1340971058437912
aF3.4558437709053536e-05
aF0.7042802254549807
aF0.30854464355708044
aF0.04011197864930327
aF1.5076705944167559
aF0.030038194057011747
aF0.0053772929075829867
aF0.0023154153265281252
aF0.0030549658935120905
aF0.45121396987468909
aF0.00011058700066957083
aF0.0210460885650261
aF6.9116875422992052e-06
aF0.29805097394662078
aF0.83112697106734124
aF2.7646750168530687e-05
aF0.0067872771661261488
aF0.10235172496393408
aF0.0034973138961917893
aa(lp40
F18.466569407529526
aF-5.6184471859513661
aF12.756242387545145
aF11.199406675388547
aF11.011628371640883
aF10.3153058467527
aF10.147136485457764
aF7.4769184886270983
aF6.424508932509541
aF5.8220669547605493
aF5.6305271999405475
aF5.2304297530355166
aF4.4602906814189796
aF3.8206453496982395
aF3.7760477265491534
aF3.1957307999753475
aF3.0512009614376745
aF3.1245221933385117
aF2.3677356543851067
aF2.0563641538334356
aF1.3679034663828396
aF1.0917954510669441
aF0.75542509100381683
aF0.27119500724931894
aF0.0091059290953969182
aF0.040230071067601229
aF0.091670065644083171
aF0.10557401271396069
aF0.15811433145410539
aF0.17754606047023544
aa(lp41
F21.737026550279847
aF13.903547700755759
aF12.315498230340037
aF11.164452208329379
aF10.936221291985778
aF10.187463702820988
aF7.7726513531025727
aF7.2527970708181657
aF5.8598469810193965
aF5.8220250908109081
aF5.4520671120591473
aF4.5010441932292267
aF4.1886231982258968
aF3.819498287675092
aF3.721330140609576
aF3.1529940666442995
aF3.1081864357895839
aF2.5429310376594514
aF2.2576576811354769
aF1.7946845717706084
aF1.3118381063558648
aF0.87867956053753937
aF0.75542129926469559
aF0.23099926089916964
aF0.009105603773777636
aF0.040016263659453224
aF0.086309701768414376
aF0.13190472781445717
aF0.10527877759940286
aF0.17723074157824262
aaI170
aI272
aI136
a.