(lp1
I3833
a(lp2
(I0
I3
tp3
a(I0
I3
tp4
a(I0
I3
tp5
a(I0
I3
tp6
a(I0
I3
tp7
a(I0
I3
tp8
a(I0
I3
tp9
a(I0
I3
tp10
a(I0
I3
tp11
a(I0
I3
tp12
a(I0
I3
tp13
a(I0
I3
tp14
a(I0
I2
tp15
a(I0
I2
tp16
a(I0
I2
tp17
a(I0
I1
tp18
a(I0
I2
tp19
a(I0
I2
tp20
a(I0
I2
tp21
a(I0
I2
tp22
a(I0
I1
tp23
a(I0
I2
tp24
a(I0
I1
tp25
a(I0
I1
tp26
a(I0
I2
tp27
a(I0
I2
tp28
a(I0
I2
tp29
a(I0
I2
tp30
a(I0
I2
tp31
a(I0
I2
tp32
a(I0
I2
tp33
a(I0
I2
tp34
a(I0
I2
tp35
a(I0
I2
tp36
aa(lp37
F0.00023496383284208223
aF0.0085996762820200467
aF0.013815873371111231
aF0.15470018754322634
aF0.55423268890790078
aF0.018045222362271629
aF0.66804916953659998
aF0.31884592116670324
aF1.2776863302286652
aF0.00037594213254443787
aF0.00046992766568498823
aF0.0032425008932204236
aF0.86212929546415806
aF0.014567757636209322
aF0.0010808336310736411
aF0.0027725732275367676
aF0.00018797106627377325
aF0.067270145342687604
aF0.026127978212039139
aF0.058552987144246504
aF0.48346158245586457
aF0.0051692043225255446
aF0.011795184408672429
aF0.17248694968937084
aF0.27072532820064399
aF0.47721154450226583
aF0.0091165967142721183
aF0.24591314745252082
aF0.012406090374061596
aF0.1512932119670152
aa(lp38
F25.327315727462707
aF21.745812268429859
aF19.751650660055414
aF19.102888969013751
aF16.740977351351241
aF15.100142297787421
aF11.888969572665204
aF11.373214004136797
aF-4.1661332481404107
aF9.005287117833463
aF7.9952185484015095
aF6.7728620833759878
aF5.5691071769368854
aF4.5572620443137506
aF4.1508068677169216
aF3.3393676170103292
aF2.8518986826859223
aF2.8045250573985561
aF2.3768854346076305
aF2.1057769312490175
aF1.4681759027150385
aF1.1823024410943515
aF0.97748447565174179
aF0.83367721382125615
aF0.47669833166785341
aF0.33490011174382728
aF0.27037890797605119
aF0.044418255902787661
aF0.13217211087283243
aF0.20479237576544571
aa(lp39
F31.433022289899604
aF22.316316259577025
aF20.061236841548762
aF19.141130101696167
aF17.145523687624749
aF15.103042733939372
aF11.889914898322735
aF11.453410634138354
aF9.1120683765181276
aF8.1204899308392928
aF7.4067902859508266
aF6.1193071779701844
aF5.2407108069587141
aF4.1784458563278335
aF3.788677166238672
aF2.8546764367602155
aF2.8080142584864261
aF2.3980219697965417
aF2.1350702730904754
aF1.6587831461712808
aF1.3413741755717392
aF1.138802728265095
aF0.97604896020731258
aF0.758072943960718
aF0.46732386291146544
aF0.040958159125243754
aF0.1298207926778768
aF0.18264372472618581
aF0.27035915931781135
aF0.29894689400345287
aaI176
aI284
aI142
a.