(lp1
I1967
a(lp2
(I0
I3
tp3
a(I0
I3
tp4
a(I0
I3
tp5
a(I0
I3
tp6
a(I0
I3
tp7
a(I0
I3
tp8
a(I0
I3
tp9
a(I0
I3
tp10
a(I0
I3
tp11
a(I0
I3
tp12
a(I0
I3
tp13
a(I0
I3
tp14
a(I0
I3
tp15
a(I0
I2
tp16
a(I0
I2
tp17
a(I0
I2
tp18
a(I0
I2
tp19
a(I0
I1
tp20
a(I0
I1
tp21
a(I0
I2
tp22
a(I0
I2
tp23
a(I0
I1
tp24
a(I0
I2
tp25
a(I0
I2
tp26
a(I0
I2
tp27
a(I0
I2
tp28
a(I0
I1
tp29
a(I0
I1
tp30
a(I0
I2
tp31
a(I0
I1
tp32
a(I0
I0
tp33
a(I0
I1
tp34
a(I0
I1
tp35
a(I0
I1
tp36
a(I0
I2
tp37
a(I0
I1
tp38
a(I0
I2
tp39
a(I0
I2
tp40
a(I0
I1
tp41
a(I0
I1
tp42
a(I0
I1
tp43
a(I0
I1
tp44
a(I0
I2
tp45
a(I0
I2
tp46
a(I0
I0
tp47
a(I0
I0
tp48
a(I0
I1
tp49
a(I0
I1
tp50
a(I0
I2
tp51
a(I0
I0
tp52
a(I0
I0
tp53
a(I0
I1
tp54
a(I0
I0
tp55
a(I0
I2
tp56
a(I0
I1
tp57
a(I0
I1
tp58
a(I0
I2
tp59
a(I0
I2
tp60
a(I0
I2
tp61
a(I0
I2
tp62
aa(lp63
F0.040599502671577199
aF0.00017999490376607863
aF0.027017495917468881
aF7.8258653810614476e-06
aF0.14743310830381107
aF1.9564663452376063e-06
aF0.0026431860324785533
aF1.7845144746629527
aF0.00035020747581039624
aF4.8911658633521427e-05
aF0.002011247402952332
aF1.6303886210655705e-05
aF0.0001995595672185102
aF0.0035216394215176194
aF0.00070367572885387392
aF0.019388581481759815
aF9.3910384573612322e-05
aF7.2389254773597145e-05
aF0.00039129326905640305
aF0.0012795289898157591
aF0.75581425264456958
aF7.8258653815055368e-06
aF0.012742465306831097
aF0.00034890316490854972
aF0.13315883854119592
aF1.9564663452514841e-05
aF0.39846714202828459
aF0.00016434317300384471
aF0.095289693347037741
aF0.00051650711515516257
aF0.0029796982438650213
aF9.3910384573625549e-05
aF0.002996328207802601
aF3.130346152349639e-05
aF1.224520982051466
aF0.00014673497589491082
aF7.825865381949626e-06
aF0.41000181544462544
aF0.31227452807023037
aF7.8258653810614476e-06
aF0.12215719351136922
aF0.00046955192286812775
aF9.3910384574069639e-05
aF5.8693990352409742e-06
aF0.00063585156221735621
aF0.014426982830121435
aF0.00053607177860826027
aF0.00016825610569459748
aF0.0015886506723702745
aF9.7823317264187498e-06
aa(lp64
F24.924559472845452
aF20.935692400341939
aF18.111038041735913
aF14.867847404704321
aF14.320995182460001
aF-8.5730475136496853
aF11.152859024874044
aF8.0658533778555803
aF7.4218769055054956
aF6.951392182512488
aF5.2647331160749804
aF5.0131998536360216
aF4.3102933959180509
aF3.5468312956277179
aF3.1436846728062662
aF2.7989526161246667
aF2.3974759373747241
aF1.8803270747908489
aF1.7257175990184657
aF1.199455619859183
aF1.1074686896325929
aF0.79493896926213281
aF0.68707035462659138
aF0.51895928157273663
aF0.51011705523602824
aF0.41445134644148679
aF0.38616207634128219
aF0.35537321432464269
aF0.29769597099863782
aF0.28343793493128189
aF0.26134307446130378
aF0.21982834428173045
aF0.19526014396018515
aF0.18099188190171991
aF0.15807844111037478
aF0.14158276830389957
aF0.0053254719895624641
aF0.0096757006254390883
aF0.11035582816345223
aF0.10338611770351049
aF0.099713975989374593
aF0.094226648348387065
aF0.024949418125754165
aF0.078053130398118606
aF0.035190080367632062
aF0.057744003844006672
aF0.053447073677924714
aF0.052107571917436028
aF0.046306162608225725
aF0.047566010008714049
aa(lp65
F31.510372451845292
aF21.033707374580789
aF18.111227363898909
aF14.870999207592718
aF14.330708196353683
aF12.190964628388803
aF10.65174151398635
aF7.4879098406301265
aF7.3602492499217567
aF5.5869081325846679
aF5.2608564684783294
aF4.7030722364624671
aF3.8200591849339003
aF3.380154510578349
aF2.9208339126837397
aF2.4302969079741419
aF2.1891462238676791
aF1.7837499986977388
aF1.7175462321596358
aF1.1953276262420991
aF1.0954280986241012
aF0.79320301373603641
aF0.6858295401156187
aF0.51849128677984657
aF0.50148405926808559
aF0.39421799750795689
aF0.3691632509886732
aF0.34591445982147812
aF0.29357360747627259
aF0.27867900853383298
aF0.2609712492313182
aF0.21978119275337302
aF0.19505553922325719
aF0.18066134582945326
aF0.15803584806449353
aF0.14156355609061225
aF0.0052183788816899564
aF0.0095851811564437173
aF0.11032542904421509
aF0.10243349818979298
aF0.094807681672949229
aF0.090888088978250708
aF0.024824981344944819
aF0.077741630057822766
aF0.035027617595815838
aF0.057624088614152559
aF0.053216199617935639
aF0.052049677962510726
aF0.046300011830112911
aF0.047555077808570871
aaI281
aI454
aI227
a.