(lp1
I2023
a(lp2
(I0
I3
tp3
a(I0
I3
tp4
a(I0
I3
tp5
a(I0
I3
tp6
a(I0
I3
tp7
a(I0
I3
tp8
a(I0
I3
tp9
a(I0
I3
tp10
a(I0
I3
tp11
a(I0
I3
tp12
a(I0
I3
tp13
a(I0
I3
tp14
a(I0
I3
tp15
a(I0
I3
tp16
a(I0
I2
tp17
a(I0
I2
tp18
a(I0
I1
tp19
a(I0
I2
tp20
a(I0
I2
tp21
a(I0
I1
tp22
a(I0
I1
tp23
a(I0
I1
tp24
a(I0
I2
tp25
a(I0
I2
tp26
a(I0
I0
tp27
a(I0
I0
tp28
a(I0
I1
tp29
a(I0
I1
tp30
a(I0
I1
tp31
a(I0
I2
tp32
a(I0
I2
tp33
a(I0
I2
tp34
a(I0
I2
tp35
a(I0
I1
tp36
a(I0
I1
tp37
a(I0
I1
tp38
a(I0
I2
tp39
a(I0
I2
tp40
a(I0
I1
tp41
a(I0
I2
tp42
a(I0
I2
tp43
a(I0
I2
tp44
a(I0
I1
tp45
a(I0
I2
tp46
a(I0
I1
tp47
a(I0
I1
tp48
a(I0
I2
tp49
a(I0
I2
tp50
a(I0
I0
tp51
a(I0
I2
tp52
a(I0
I2
tp53
a(I0
I2
tp54
a(I0
I2
tp55
a(I0
I1
tp56
a(I0
I0
tp57
a(I0
I1
tp58
a(I0
I2
tp59
a(I1
I2
tp60
aa(lp61
F1.6211321227643793e-06
aF6.4845284928338742e-06
aF0.0015522340080620367
aF0.0028607578202552997
aF0.0024333193170775758
aF0.00026181283791393284
aF0.30330166177903595
aF0.80071119947386382
aF0.011960712805728413
aF0.28408202592894649
aF5.673962431568258e-05
aF0.0040386454021772433
aF1.6211321232639797e-06
aF1.6211321232917353e-06
aF1.3374340018051933e-05
aF8.3488304350232134e-05
aF0.0001244218904634109
aF0.0038015548291451262
aF0.27822234254851264
aF2.4316981854788366e-06
aF0.0021188196851567032
aF3.566490671214062e-05
aF0.72764569392185785
aF1.9453585479389801e-05
aF4.0528303046905023e-07
aF0.0020300627014061545
aF0.0039669103057216049
aF0.0018525487339042801
aF0.6086439236182839
aF0.22587517572100035
aF2.0264151541337511e-06
aF0.00019291472267357612
aF6.889811523858036e-06
aF0.00093377210302225677
aF0.00085231021382655868
aF0.0019745389261824897
aF0.0012754256980100978
aF0.002111524590601932
aF0.26549746858816203
aF4.0528303069109484e-07
aF4.2554718236886835e-05
aF0.34868262123120064
aF0.0096858591537021255
aF1.4590189111540752e-05
aF1.5719249880774202
aF4.0528303081599493e-06
aF9.3215097094478949e-06
aF4.0528303052456138e-07
aF1.0132075770941107e-05
aF1.7021887294660365e-05
aa(lp62
F26.78686723090691
aF15.963328208509118
aF-6.9724758693890552
aF13.606515434145713
aF13.068480834003818
aF11.965818287529489
aF11.302119002679548
aF9.855701787284632
aF8.9438460041333432
aF7.1677647731433778
aF6.6966899818218764
aF5.7926386346667149
aF4.6883349224001885
aF3.9949213205446847
aF3.2657663365791927
aF2.9574026244527456
aF2.2561866540550124
aF1.9666990406103593
aF1.8777539438732174
aF1.3451937958031033
aF0.80949221019124795
aF0.69955085310625842
aF0.62805875490768237
aF0.46470228487918985
aF0.31726039894156605
aF0.28423324006812245
aF0.16118847427316169
aF0.13823535292941819
aF0.13120375401510068
aF0.12208196754537484
aF0.087560104778101583
aF0.078587744213902508
aF0.070285197164652854
aF0.064229939418290499
aF0.065302590692422349
aF0.052999942140684368
aF0.047850660141221156
aF0.044827166199157442
aF0.035802056917392799
aF0.00015191816294828206
aF0.0010149564191467011
aF0.0059268766802827305
aF0.010159395664796943
aF0.01181366510655815
aF0.011233569793327963
aF0.016746804912055296
aF0.021616922739875078
aF0.021648999520313003
aF0.028685090776813599
aF0.026727122629487367
aa(lp63
F31.432689138784916
aF17.752216950012276
aF13.650389845570203
aF13.071323515922211
aF12.305180482203498
aF11.313187538984156
aF10.020687498322857
aF9.4950246986899476
aF7.5758244390649461
aF6.6979589136428679
aF6.2437836002346714
aF4.8678644813644851
aF4.3057568566376272
aF3.2693151643717853
aF2.9655001813226387
aF2.5224831281245912
aF2.075210080563791
aF1.9001509372601932
aF1.7897331046386213
aF1.331156856352308
aF0.80939484775604398
aF0.68094874989385434
aF0.62548171888361748
aF0.46016042700986848
aF0.31708159570919675
aF0.28250101226185775
aF0.16087742076819966
aF0.13603691347369234
aF0.13017719704048794
aF0.12177832549958256
aF0.086445749106555753
aF0.078581086685365648
aF0.0702736792144633
aF0.064214818651270572
aF0.065296448857721553
aF0.052721441052012347
aF0.04752784566849446
aF0.044729674936423415
aF0.035723056945208741
aF0.00015185471384264072
aF0.0010133881007198748
aF0.0059251012098153069
aF0.010159269000820535
aF0.011805603308469715
aF0.011224829612794356
aF0.016714864667767709
aF0.028509551717918673
aF0.02671475249461399
aF0.021540673325498732
aF0.021646300593322294
aaI286
aI464
aI232
a.