(lp1
I341
a(lp2
(I0
I3
tp3
a(I0
I3
tp4
a(I0
I3
tp5
a(I0
I3
tp6
a(I0
I3
tp7
a(I0
I3
tp8
a(I0
I3
tp9
a(I0
I3
tp10
a(I0
I3
tp11
a(I0
I3
tp12
a(I0
I3
tp13
a(I0
I3
tp14
a(I0
I3
tp15
a(I0
I3
tp16
a(I0
I3
tp17
a(I0
I2
tp18
a(I0
I2
tp19
a(I0
I1
tp20
a(I0
I2
tp21
a(I0
I1
tp22
a(I0
I2
tp23
a(I0
I2
tp24
a(I0
I1
tp25
a(I0
I2
tp26
a(I0
I1
tp27
a(I0
I2
tp28
a(I0
I2
tp29
a(I0
I1
tp30
a(I0
I1
tp31
a(I0
I2
tp32
a(I0
I1
tp33
a(I0
I2
tp34
a(I0
I2
tp35
a(I0
I2
tp36
aa(lp37
F0.032100812235001525
aF0.011009303835108909
aF0.45581415062570324
aF0.001390648905486902
aF0.021207395808683138
aF0.83627251368530653
aF0.30246613694351643
aF0.0016224237230688665
aF0.073936166808415055
aF0.72683134200866617
aF0.012631727558177985
aF0.52643304035748695
aF0.31793710601706393
aF0.0010429866791155096
aF0.99826862524849413
aF0.26139853645334032
aF0.21415993144506473
aF0.01251584014938692
aF0.27294381955410663
aF0.039401718988810619
aF0.0004635496351624766
aF0.1805236110435875
aF0.028392415153701833
aF0.058421739956570962
aF0.0034766222637186012
aF0.0050990459867872873
aF0.0060840889615075069
aF0.77327322108150698
aF0.37974855268076146
aF0.00092709927032597061
aa(lp38
F25.429717800465284
aF19.820149687499551
aF14.781395391276225
aF-5.9532420139808311
aF14.072874821225527
aF13.127820157519563
aF12.006878569443325
aF9.8891912007367022
aF8.5170911560792071
aF7.9480561443572508
aF7.347223973847929
aF6.1274036941851842
aF5.7331252727807724
aF5.5423255992290619
aF4.1997779417067527
aF3.6579300201368543
aF3.9226421262192788
aF2.9969714107675354
aF2.4237642454173911
aF2.1984557001776164
aF1.7535614625281823
aF0.97940140145741994
aF0.013600115512536308
aF0.064914316231459754
aF0.11888141860903048
aF0.20517708432856235
aF0.4045396055356944
aF0.69800890874713462
aF0.52153719070311755
aF0.59115922933188181
aa(lp39
F27.680090198704146
aF19.917126894780047
aF15.193825984230555
aF14.07270881304663
aF14.119982042699407
aF12.006956523306341
aF10.44966796246767
aF9.8537493809202399
aF8.3932971588850371
aF7.3566086545457434
aF6.4067400298854675
aF6.053355270377577
aF5.7197308307705628
aF4.5412459703497063
aF4.0915872365379187
aF3.6910239879555258
aF3.3275364879618285
aF2.8967428326986293
aF2.2469536304206255
aF1.7556441269582688
aF1.3516328507325726
aF0.97298416504609675
aF0.68696595845041397
aF0.58818962842618183
aF0.52035894288144635
aF0.37437905801804794
aF0.19253556209077222
aF0.013539798010054177
aF0.064654007813676473
aF0.11381072339189896
aaI175
aI282
aI141
a.