(lp1
I6654
a(lp2
(I0
I3
tp3
a(I0
I3
tp4
a(I0
I3
tp5
a(I0
I3
tp6
a(I0
I3
tp7
a(I0
I3
tp8
a(I0
I3
tp9
a(I0
I3
tp10
a(I0
I3
tp11
a(I0
I3
tp12
a(I0
I3
tp13
a(I0
I3
tp14
a(I0
I3
tp15
a(I0
I3
tp16
a(I0
I3
tp17
a(I0
I3
tp18
a(I0
I3
tp19
a(I0
I3
tp20
a(I0
I3
tp21
a(I0
I3
tp22
a(I0
I2
tp23
a(I0
I2
tp24
a(I0
I1
tp25
a(I0
I1
tp26
a(I0
I1
tp27
a(I0
I1
tp28
a(I0
I2
tp29
a(I0
I1
tp30
a(I0
I2
tp31
a(I0
I2
tp32
a(I0
I2
tp33
a(I0
I2
tp34
a(I0
I2
tp35
a(I0
I2
tp36
aa(lp37
F0.0072924762857746739
aF0.36361241728004967
aF0.4492686283200466
aF0.39540848203796553
aF0.010209466800084499
aF0.010626179730700208
aF0.83672483859876134
aF0.19392778008527847
aF0.31430572791688566
aF0.044379927110570594
aF0.037695157181945049
aF0.030420043934945934
aF0.012032585871528445
aF0.00015626734898077643
aF0.0083342586123136275
aF0.00078133674490411809
aF0.41126093644013784
aF0.15845509186661721
aF0.012188853220508861
aF0.01713731927157025
aF0.20813074580376342
aF0.088030606592565119
aF0.52068280680430823
aF0.006042337493927713
aF0.00062506939592366084
aF0.43885514581434543
aF1.461490381343729
aF0.15196999688391138
aF0.072664317276110002
aF0.010886625312338083
aa(lp38
F18.678054750206496
aF14.395463035964271
aF-5.8411522701741339
aF12.443527711777451
aF11.234820462162663
aF10.124583510371695
aF9.4009036778042496
aF8.3551920649268592
aF7.8367217399510167
aF7.1168515195384616
aF6.3933196685022669
aF5.4585337780185039
aF5.286754853365828
aF4.7030825880872884
aF4.3021020320426757
aF3.3453431950417385
aF0.0031070484989171141
aF0.14900062637145475
aF0.21680071503271672
aF0.37492037217078406
aF0.48214066632479174
aF0.6707755143175026
aF2.9272097171058906
aF1.1027547010161418
aF2.6190556741242319
aF2.4487721314713524
aF1.4856927567611313
aF1.9370098947102494
aF1.8755878916681066
aF1.7844195719959679
aa(lp39
F20.592258976976176
aF15.245866586662208
aF14.01309649908389
aF11.24944318014081
aF10.576741645091641
aF10.105340853409622
aF9.1994777449537821
aF8.1801432507755578
aF7.2324946414738065
aF6.4686559466064741
aF6.061627014106608
aF5.4254672207517887
aF5.0561037024491862
aF4.6373646324349727
aF4.2749627720270285
aF3.1978386560328045
aF2.7407852763077303
aF2.61313250922555
aF2.1706262660605464
aF1.918784751085584
aF1.7844220062617415
aF1.6115936829256479
aF1.1765159427972536
aF0.90183619691604622
aF0.0030953738401191342
aF0.14893663785757189
aF0.2163012818954054
aF0.56527397878589325
aF0.37305913086748688
aF0.39271269353141802
aaI173
aI278
aI139
a.