(lp1
I9879
a(lp2
(I0
I3
tp3
a(I0
I3
tp4
a(I0
I3
tp5
a(I0
I3
tp6
a(I0
I3
tp7
a(I0
I3
tp8
a(I0
I3
tp9
a(I0
I3
tp10
a(I0
I3
tp11
a(I0
I3
tp12
a(I0
I3
tp13
a(I0
I3
tp14
a(I0
I3
tp15
a(I0
I3
tp16
a(I0
I3
tp17
a(I0
I3
tp18
a(I0
I3
tp19
a(I0
I3
tp20
a(I0
I3
tp21
a(I0
I2
tp22
a(I0
I1
tp23
a(I0
I2
tp24
a(I0
I2
tp25
a(I0
I2
tp26
a(I0
I0
tp27
a(I0
I1
tp28
a(I0
I2
tp29
a(I0
I2
tp30
a(I0
I2
tp31
a(I0
I1
tp32
a(I0
I2
tp33
a(I0
I2
tp34
a(I0
I2
tp35
a(I0
I2
tp36
a(I0
I2
tp37
aa(lp38
F0.014536875376197855
aF0.19449884975997672
aF0.67120614969428916
aF0.17678430428201386
aF0.00056784669438270097
aF0.0089038361679212308
aF0.9444335365502643
aF0.44858071746814482
aF5.6784669437703883e-05
aF0.27009665874761457
aF0.094821312414807846
aF0.0009085547110135872
aF0.64985057121194312
aF0.0010221240498887729
aF0.10368880639428779
aF1.1228986670476471
aF0.21333318891925979
aF0.03266254186090245
aF0.14036488869107844
aF0.00022713867775293883
aF0.00090855471101192187
aF0.0054172574644106852
aF0.0078930690519203317
aF0.57675053055065739
aF0.4534611705241316
aF0.00011356933887718412
aF0.21410318903684589
aF0.045654874228372666
aF0.0080407091924596941
aF0.0080520661263498994
aa(lp39
F22.391871624564793
aF15.326259878969923
aF-6.6341017432515104
aF13.382473152124886
aF12.212866379335612
aF10.804931353683726
aF9.0346251009582108
aF9.3565656519796754
aF7.6847794023307996
aF7.0326192233164573
aF6.4606127155388933
aF5.6964326814512578
aF5.0435116226685635
aF4.274527231464603
aF4.1041777662597401
aF3.42160585733953
aF2.8692806831347308
aF2.5442873570006435
aF2.0512036052896936
aF1.4923882460609914
aF1.0215858529272157
aF0.91307698786559977
aF0.53906550473597148
aF0.48344508470051395
aF0.011311630094514715
aF0.025148876846475651
aF0.32101206419610528
aF0.12466809507348882
aF0.1906512416863694
aF0.25770926800564842
aa(lp40
F24.773916530376844
aF15.467842550288854
aF14.846149944969779
aF12.649625744119055
aF10.828809469935765
aF9.7930544786399505
aF9.3440077454713037
aF8.8046870576112983
aF7.0582508773769996
aF6.4863312371624833
aF5.700570847900515
aF5.071346992531744
aF4.3176553922625187
aF4.1110787021335256
aF3.8420415474932326
aF3.3565943926443484
aF2.668792033612331
aF2.4229839976019214
aF1.936991631221985
aF1.3920712542038949
aF0.97664777398440783
aF0.86483248493985676
aF0.52840770210974675
aF0.48183787674703926
aF0.011307759967147932
aF0.023086744452573089
aF0.12411944723314212
aF0.19063100158374527
aF0.27444703237442686
aF0.25714876248990953
aaI172
aI276
aI138
a.