(lp1
I9965
a(lp2
(I0
I3
tp3
a(I0
I3
tp4
a(I0
I3
tp5
a(I0
I3
tp6
a(I0
I3
tp7
a(I0
I3
tp8
a(I0
I3
tp9
a(I0
I3
tp10
a(I0
I3
tp11
a(I0
I3
tp12
a(I0
I3
tp13
a(I0
I3
tp14
a(I0
I3
tp15
a(I0
I3
tp16
a(I0
I3
tp17
a(I0
I3
tp18
a(I0
I3
tp19
a(I0
I3
tp20
a(I0
I3
tp21
a(I0
I3
tp22
a(I0
I3
tp23
a(I0
I3
tp24
a(I0
I3
tp25
a(I0
I2
tp26
a(I0
I1
tp27
a(I0
I1
tp28
a(I0
I2
tp29
a(I0
I2
tp30
a(I0
I1
tp31
a(I0
I2
tp32
a(I0
I0
tp33
a(I0
I1
tp34
a(I0
I2
tp35
a(I0
I2
tp36
a(I0
I2
tp37
aa(lp38
F0.0019180917735623915
aF0.0035130267809184712
aF0.26160061444314486
aF0.015417705071191667
aF0.18864015616510033
aF6.254647087722276e-05
aF0.18581514056382165
aF0.0027676813363077812
aF0.270461364484059
aF0.0037632126644275843
aF0.00075055765052423062
aF0.00012509294175089281
aF0.015292612129432115
aF0.384036634236395
aF0.29989816604153696
aF0.21281436715906721
aF0.049349165521971883
aF0.0044407994322703814
aF0.62607974906717834
aF0.31412922556802886
aF0.0003127323543861138
aF0.063078115879481977
aF0.64484021552634641
aF0.045158551973202066
aF0.30653634461385826
aF0.1711896907904098
aF0.28785449559377163
aF0.00012509294175466756
aF1.1248835108065016
aF0.27197290419692033
aa(lp39
F26.826970069118278
aF17.832768668779043
aF-4.1415325385274144
aF11.78030928919631
aF11.230907346798032
aF10.355750115272238
aF9.9946583281576871
aF9.3963117835080361
aF8.4815390815930574
aF7.1595662045249631
aF6.5443825051760935
aF6.1489437180900808
aF5.6535987337115055
aF5.167166766476079
aF4.6839059804678582
aF4.3906616663119555
aF3.5023344555563316
aF3.7892612401343517
aF1.7930982280863406
aF2.5342947826865232
aF2.3326319292669266
aF2.3946159879766045
aF0.84942719046446846
aF0.0019903309417306052
aF0.43494901759225019
aF0.39372204379300657
aF0.25316881629394222
aF0.11950757211696521
aF0.15811453065764267
aF0.18696395236032737
aa(lp40
F27.04589687492674
aF20.390489406508483
aF12.321077750580155
aF11.699853342747078
aF10.565328147180946
aF9.9947836770894796
aF9.4494505935719424
aF8.8295573382843759
aF7.1898839569569466
aF6.7206526576455206
aF6.5431042256464371
aF5.816426945449634
aF5.3409357822898347
aF4.692289340648732
aF4.4570330658984956
aF4.0810327346228341
aF3.5501342460722949
aF2.6275853731986749
aF2.2614238404729088
aF2.4718988962373896
aF2.376939338059922
aF1.3613509917638702
aF0.81591065688304587
aF0.0019561156098412023
aF0.43310947088323853
aF0.36456245492309902
aF0.23604621349648794
aF0.10644446892954416
aF0.18694974352597798
aF0.1391908307305979
aaI170
aI272
aI136
a.