(lp1
I8913
a(lp2
(I0
I3
tp3
a(I0
I3
tp4
a(I0
I3
tp5
a(I0
I3
tp6
a(I0
I3
tp7
a(I0
I3
tp8
a(I0
I3
tp9
a(I0
I3
tp10
a(I0
I3
tp11
a(I0
I3
tp12
a(I0
I3
tp13
a(I0
I3
tp14
a(I0
I3
tp15
a(I0
I3
tp16
a(I0
I3
tp17
a(I0
I3
tp18
a(I0
I2
tp19
a(I0
I1
tp20
a(I0
I2
tp21
a(I0
I0
tp22
a(I0
I1
tp23
a(I0
I2
tp24
a(I0
I2
tp25
a(I0
I1
tp26
a(I0
I2
tp27
a(I0
I2
tp28
a(I0
I1
tp29
a(I0
I2
tp30
a(I0
I2
tp31
a(I0
I2
tp32
a(I0
I1
tp33
a(I0
I1
tp34
a(I0
I2
tp35
a(I0
I2
tp36
a(I0
I2
tp37
aa(lp38
F4.5031704712428233e-05
aF0.33917579778036355
aF0.0081777575757824295
aF9.0063409425300556e-06
aF0.25663268304248343
aF0.0060882864771204248
aF0.0010837630267439557
aF0.24435804104242415
aF0.1701517959036366
aF0.010393317447626949
aF0.00070249459351412469
aF0.0011558137542853064
aF0.0078895546656201354
aF0.45231845622260658
aF9.0063409414753437e-06
aF0.018237840408532602
aF0.2833935240962544
aF0.23833480036099894
aF0.0063494703644533246
aF0.0044311197437037278
aF0.0032783081030648836
aF9.0063409421484164e-06
aF0.21888110392522186
aF0.24633243111791492
aF0.00019813950073466202
aF0.0015130652783374998
aF9.0063409430296559e-06
aF1.364180455512789
aF0.0060342484314671041
aF0.019138474502776059
aa(lp39
F18.753407349262886
aF14.31068008609415
aF12.656431123806597
aF12.671564209749684
aF10.703760035101137
aF9.7492160849826455
aF-3.9786535384549628
aF7.7066039115471838
aF6.6078941891780136
aF5.9028053750653777
aF3.960784005207084
aF4.2777400754904269
aF4.2404040258280897
aF3.2818112506278432
aF2.7646506011422005
aF2.4536584810657622
aF2.2947770357940791
aF1.7418048989217831
aF1.6791717384196243
aF1.3183507582271485
aF1.1362013604116306
aF0.94966506086746838
aF0.6022211160132539
aF0.40812112692016927
aF0.12397634508997722
aF0.089252303743303327
aF0.039755982211036822
aF0.048231381633615671
aF0.050318653517560478
aF0.05058547529192238
aa(lp40
F18.863171404895645
aF15.122184053535904
aF13.898447121285763
aF12.657743984459204
aF10.743434246510537
aF9.8691972333261884
aF7.8240889968945879
aF7.4303230331956662
aF5.9095021003338042
aF4.6735852652934762
aF4.244704605228578
aF3.9650614132138262
aF3.7387641180442879
aF3.0696452549588722
aF2.6924699302201969
aF2.3761350970104642
aF2.1016537918705547
aF1.7404044363913325
aF1.5956088892545306
aF1.1209296733954637
aF1.2639058938085324
aF0.77548676103956682
aF0.47888338263048419
aF0.3793535836821928
aF0.12345699567255614
aF0.078556783147333664
aF0.037481178891465732
aF0.04794791169944438
aF0.05030683465573519
aF0.050487998761536659
aaI176
aI284
aI142
a.