(lp1
I3234
a(lp2
(I0
I3
tp3
a(I0
I3
tp4
a(I0
I3
tp5
a(I0
I3
tp6
a(I0
I3
tp7
a(I0
I3
tp8
a(I0
I3
tp9
a(I0
I3
tp10
a(I0
I3
tp11
a(I0
I3
tp12
a(I0
I3
tp13
a(I0
I3
tp14
a(I0
I3
tp15
a(I0
I3
tp16
a(I0
I3
tp17
a(I0
I3
tp18
a(I0
I3
tp19
a(I0
I2
tp20
a(I0
I2
tp21
a(I0
I2
tp22
a(I0
I1
tp23
a(I0
I1
tp24
a(I0
I2
tp25
a(I0
I2
tp26
a(I0
I2
tp27
a(I0
I2
tp28
a(I0
I2
tp29
a(I0
I2
tp30
a(I0
I0
tp31
a(I0
I2
tp32
a(I0
I1
tp33
a(I0
I0
tp34
a(I0
I2
tp35
a(I0
I2
tp36
a(I0
I2
tp37
a(I0
I2
tp38
aa(lp39
F0.0022572111012486573
aF0.0049376492839687813
aF0.51580699787396789
aF0.0050303561684836851
aF0.00032245872874669956
aF0.00090288444049768657
aF0.00025796698299918042
aF0.29325202939257511
aF0.0015478018979981911
aF0.0090610902778456293
aF0.00064491745749917229
aF0.0066426498122269528
aF0.0012898349149841337
aF0.24390778242575362
aF0.074750971741658123
aF0.01928303197919079
aF0.54207629974821581
aF0.024329511084116406
aF0.47270635804255989
aF0.0023217028469915135
aF0.00051593396599880492
aF6.4491745750405727e-05
aF6.4491745749517548e-05
aF1.0042432957783158
aF0.0014833101522446768
aF0.014123692319205627
aF1.231841720314061
aF0.34502882439438642
aF0.01262425923052346
aF0.001289834915000565
aa(lp40
F26.874545458100982
aF15.3791833746089
aF12.76023597219895
aF11.385214313611565
aF8.7152937748111672
aF-4.9929550014169539
aF6.3165050277294954
aF5.5619924733582788
aF4.6144257519500558
aF4.0176824556606707
aF3.2381668360377831
aF2.3443941997262394
aF1.7088993238172332
aF1.484760382335671
aF1.4387722953458171
aF1.3556580647960603
aF1.1723390711969728
aF0.98435779922381528
aF0.8662364130717185
aF0.023405492574823245
aF0.69629187314308094
aF0.66289987383929294
aF0.62447589253363001
aF0.50942536384560699
aF0.11343434240957537
aF0.13293351861582794
aF0.19544529926306622
aF0.22859383396488453
aF0.31468219925395419
aF0.34808878496920992
aa(lp41
F28.107537315714104
aF16.450042805478358
aF14.928708452235638
aF11.402798372531503
aF8.9879295898095357
aF7.1170266732892351
aF6.2891483861135846
aF5.1277893483072647
aF4.1947040017681552
aF3.4187188488622948
aF2.8172606842284216
aF2.1100287599228515
aF1.6725175773115295
aF1.4393135400926504
aF1.4069472382343817
aF1.2781318666065526
aF1.1054768914754092
aF0.9594147367039273
aF0.017967790304931591
aF0.84170441732258916
aF0.11288398069444906
aF0.13273939185021894
aF0.18914159342805797
aF0.21315179753664065
aF0.30946023305180514
aF0.34591511657543184
aF0.69534560268526624
aF0.65978664913272811
aF0.55933877704907142
aF0.50818386638448254
aaI162
aI256
aI128
a.