(lp1
I1244
a(lp2
(I0
I3
tp3
a(I0
I3
tp4
a(I0
I3
tp5
a(I0
I3
tp6
a(I0
I3
tp7
a(I0
I3
tp8
a(I0
I3
tp9
a(I0
I3
tp10
a(I0
I3
tp11
a(I0
I3
tp12
a(I0
I2
tp13
a(I0
I1
tp14
a(I0
I2
tp15
a(I0
I2
tp16
a(I0
I1
tp17
a(I0
I2
tp18
a(I0
I2
tp19
a(I0
I1
tp20
a(I0
I2
tp21
a(I0
I2
tp22
a(I0
I2
tp23
a(I0
I1
tp24
a(I0
I1
tp25
a(I0
I2
tp26
a(I0
I2
tp27
a(I0
I2
tp28
a(I0
I2
tp29
a(I0
I1
tp30
a(I0
I2
tp31
a(I0
I2
tp32
a(I0
I2
tp33
a(I0
I2
tp34
a(I0
I2
tp35
a(I0
I2
tp36
aa(lp37
F0.00031977188076792729
aF0.18035134075287296
aF0.03165741619598271
aF0.24622434819097899
aF0.74187076338061075
aF0.063208241765044582
aF0.17107795621061417
aF0.0074613438845740065
aF0.063741194899659043
aF0.93426684497572432
aF0.042103297634388304
aF0.017161090934522782
aF0.031550825569060414
aF0.0077811157653409069
aF0.05286895095356061
aF0.0066086188691950598
aF0.015242459649918161
aF0.27809494564080328
aF0.063208241765046413
aF0.35515996890577251
aF0.010232700184560128
aF0.096144745484096239
aF0.060650066718903162
aF0.4083486917401018
aF0.17757998445288964
aF0.0050097594653571997
aF0.17757998445288786
aF0.020785172249887962
aF0.085059320284156414
aF0.0017054500307600211
aa(lp38
F29.086737330932802
aF27.234724219590252
aF18.637148860909541
aF17.370977713967399
aF14.269545030771747
aF13.717702529994524
aF12.036340563485144
aF-2.4271392800961356
aF9.9869061388095837
aF9.3633300309845211
aF8.8774987389593356
aF7.4217353690780419
aF6.923442689046345
aF6.1761534909480913
aF5.6635339484404694
aF5.1833179017704998
aF4.7207053264559891
aF4.4630028794084922
aF4.2777512365851278
aF0.033150972081385101
aF0.21880969551190144
aF0.29428722105351618
aF2.8205567717824769
aF2.3423371469442631
aF2.0064544751494933
aF1.9090765981198916
aF1.5079277465537126
aF0.97488403000839163
aF1.0030951447773502
aF1.22323884591212
aa(lp39
F29.138811484495161
aF28.531120343385659
aF18.823267996938647
aF17.641773604516818
aF15.182402637308941
aF13.77622676117416
aF12.037702848692975
aF10.134190389809858
aF9.3930603557408947
aF8.9537252063181594
aF7.6678033648892221
aF6.941392817622412
aF6.19961908835801
aF5.6641145043910859
aF5.1864795412835951
aF4.7780821476403155
aF4.5296464485765195
aF4.2943420151195273
aF4.0027754441355627
aF0.025900999987890676
aF0.2177416123434549
aF0.29395930036209594
aF2.3859877022573381
aF2.1116396104382864
aF1.9584166462944002
aF0.74818215279095457
aF1.5370735079828797
aF0.97489016261661721
aF1.0366995179640031
aF1.2260799126077653
aaI178
aI288
aI144
a.