(lp1
I1127
a(lp2
(I0
I3
tp3
a(I0
I3
tp4
a(I0
I3
tp5
a(I0
I3
tp6
a(I0
I3
tp7
a(I0
I3
tp8
a(I0
I3
tp9
a(I0
I3
tp10
a(I0
I3
tp11
a(I0
I3
tp12
a(I0
I3
tp13
a(I0
I3
tp14
a(I0
I3
tp15
a(I0
I3
tp16
a(I0
I3
tp17
a(I0
I3
tp18
a(I0
I3
tp19
a(I0
I3
tp20
a(I0
I3
tp21
a(I0
I3
tp22
a(I0
I3
tp23
a(I0
I2
tp24
a(I0
I2
tp25
a(I0
I1
tp26
a(I0
I2
tp27
a(I0
I1
tp28
a(I0
I0
tp29
a(I0
I2
tp30
a(I0
I1
tp31
a(I0
I1
tp32
a(I0
I2
tp33
a(I0
I2
tp34
a(I0
I2
tp35
a(I0
I1
tp36
a(I0
I1
tp37
a(I0
I2
tp38
a(I0
I2
tp39
a(I0
I2
tp40
a(I0
I1
tp41
a(I0
I1
tp42
a(I0
I0
tp43
a(I0
I1
tp44
a(I0
I0
tp45
a(I0
I2
tp46
a(I0
I2
tp47
a(I0
I2
tp48
a(I0
I1
tp49
a(I0
I1
tp50
a(I0
I2
tp51
a(I0
I2
tp52
a(I0
I1
tp53
a(I0
I1
tp54
a(I0
I2
tp55
a(I0
I1
tp56
a(I0
I2
tp57
a(I0
I2
tp58
a(I0
I2
tp59
aa(lp60
F0.35875176057673652
aF4.7935610131721873e-05
aF5.0840798735407589e-06
aF0.29657522916311319
aF4.3577827426588556e-06
aF2.5420399310860375e-05
aF7.2629712377647593e-07
aF0.0014671201889360219
aF0.022482527449372292
aF2.1788913695530709e-06
aF0.0017082508338211455
aF2.9051884928799065e-05
aF0.00042875740174475041
aF2.5420399307307662e-05
aF0.33075137230794915
aF0.48843540548391129
aF4.3577827392837776e-05
aF0.0037447879673437878
aF0.2033561131054995
aF0.0033275302700381815
aF2.9051884853359411e-06
aF7.2629712022376225e-07
aF7.2629712821736803e-07
aF3.631485615329666e-06
aF2.4694102189637412e-05
aF3.6314856011188112e-06
aF0.62180283948754678
aF0.60516208372146707
aF0.0014475101665833989
aF0.094239911533112009
aF0.004066174444361581
aF0.0076515401931576132
aF0.00058031140145509141
aF7.2629712732918961e-07
aF0.0035261725332489391
aF0.13997864435490825
aF0.39210351739783234
aF0.086855310751385417
aF4.8661907261049464e-05
aF0.028307793526182935
aF0.0053408258956153531
aF0.24534834939640732
aF0.24374882498975017
aF0.0001409016419059439
aF0.27320072814674656
aF0.0003333703795602716
aF0.2749458814312753
aF0.18199616864720802
aF0.0014627624061738231
aF1.234705109354195e-05
aa(lp61
F19.288909906357571
aF15.487084706705177
aF14.566876116200072
aF12.787463337672198
aF11.422010728874641
aF11.022807403543332
aF10.360872417096337
aF8.900809145484331
aF8.472407235503395
aF7.7226284865030772
aF7.1927390951694949
aF-2.7942361424301221
aF6.2088528867823367
aF5.9458798739200605
aF5.6493220585349135
aF5.13546789854857
aF4.6322636053832396
aF4.1120951804758681
aF3.6952700408465815
aF3.5076747176183707
aF3.0138999465779559
aF3.0866418924550558
aF2.7250024524806289
aF2.335427999050093
aF1.5081142531833709
aF1.2015640963730723
aF0.84669166005352225
aF0.7616120645585962
aF0.34051908906955786
aF0.32501679504373976
aF0.29711038357671882
aF0.27532980146835223
aF0.19257996401320021
aF0.12009220036287742
aF0.10640180379759238
aF0.10156960726661159
aF0.080186683443713477
aF0.062102093946462419
aF0.0035094740662154193
aF0.047872607424649175
aF0.039792640049439498
aF0.039368755993562161
aF0.035190141826635872
aF0.033525359734592149
aF0.025938844116893619
aF0.016617705202825211
aF0.015278982518061906
aF0.014302965090033768
aF0.013564355191801896
aF0.013315455993321625
aa(lp62
F19.71007763742714
aF16.096029105051702
aF14.625110135666349
aF13.134637443387378
aF11.812495542079649
aF11.15414717722104
aF10.469867539933135
aF9.0666929164631842
aF8.4890469956645944
aF7.741685483366191
aF7.3490517432577942
aF6.5402001507749157
aF6.1824421138526278
aF5.6498450266421196
aF5.1846369279995663
aF4.6792568368197243
aF4.1143980083140024
aF3.7208913696930077
aF3.5090913806446529
aF3.1147742984968043
aF3.0198086546089393
aF2.7269028236433277
aF2.3361496587550707
aF1.8857087988904842
aF1.3720658947439097
aF1.0854802580146614
aF0.76346562560764608
aF0.68926609152264251
aF0.33713409591512722
aF0.31798974978637823
aF0.29710883276031841
aF0.27527231288956583
aF0.1924040413669785
aF0.11986529231244263
aF0.10637532976165209
aF0.10047093743765981
aF0.07983005686794685
aF0.0609228503623543
aF0.003130164938028555
aF0.047864304795002872
aF0.039295510763367174
aF0.039413602858928809
aF0.035088389428512966
aF0.033364574417632756
aF0.025830350421921233
aF0.016514814882680525
aF0.015274141996854475
aF0.014294942120833114
aF0.013536630381434508
aF0.013239446459824902
aaI295
aI482
aI241
a.