(lp1
I5704
a(lp2
(I0
I3
tp3
a(I0
I3
tp4
a(I0
I3
tp5
a(I0
I3
tp6
a(I0
I3
tp7
a(I0
I3
tp8
a(I0
I3
tp9
a(I0
I3
tp10
a(I0
I3
tp11
a(I0
I3
tp12
a(I0
I3
tp13
a(I0
I3
tp14
a(I0
I3
tp15
a(I0
I3
tp16
a(I0
I3
tp17
a(I0
I3
tp18
a(I0
I3
tp19
a(I0
I2
tp20
a(I0
I1
tp21
a(I0
I2
tp22
a(I0
I2
tp23
a(I0
I1
tp24
a(I0
I2
tp25
a(I0
I1
tp26
a(I0
I1
tp27
a(I0
I1
tp28
a(I0
I2
tp29
a(I0
I2
tp30
a(I0
I1
tp31
a(I0
I2
tp32
a(I0
I2
tp33
a(I0
I2
tp34
a(I0
I2
tp35
a(I0
I2
tp36
aa(lp37
F0.6918925168565413
aF0.33975156521267103
aF0.0075070957930870597
aF0.0067724564494096029
aF0.10537674398039387
aF0.00027548975387348129
aF1.0041410216407041
aF0.030303872926226827
aF0.0011937889334574514
aF0.025918994343722135
aF0.0063783530515197917
aF0.0012167464129504424
aF0.028650934402977168
aF0.0017906834001859551
aF0.014325467201490305
aF0.015289681340056038
aF0.0019973007155922318
aF0.0098104962352059122
aF0.40250392227410714
aF0.19929770569550354
aF0.40761770083040716
aF0.28396489005302294
aF0.33610323909711892
aF0.012442953883346597
aF0.4239997755695063
aF0.13568061690662514
aF0.63301040821238264
aF0.0077137131084941135
aF0.31477191440473284
aF0.29962954355807003
aa(lp38
F20.919299384342544
aF16.927410714675563
aF15.546345242155603
aF14.530909912570777
aF12.629744408820761
aF-3.6178882001312291
aF10.50334553874127
aF10.351425078060238
aF9.3027191370622404
aF8.7728373579989363
aF7.8433854339971427
aF7.0427241176589312
aF6.267288186370517
aF5.786850656954786
aF5.1417687662529223
aF3.8582025101106479
aF3.8406288551754511
aF3.1492000407810798
aF1.8699867847323857
aF0.052626241879351277
aF0.19442913094442626
aF0.29162792939166565
aF1.682785367386753
aF0.49836997318191051
aF0.69307668403316702
aF0.73905666193850683
aF0.98750664989962811
aF1.1809372039180153
aF1.3226259473607562
aF1.4158708309973649
aa(lp39
F22.420705507664209
aF19.223840472681026
aF15.809523068072405
aF14.731746990409379
aF12.759949974845597
aF10.507149237697709
aF10.369578887051278
aF9.0154321941442337
aF9.4673105186069897
aF8.2556753648228156
aF7.2515787850695759
aF6.2724664007204378
aF5.8497867844463878
aF5.3735929042408914
aF4.0526433090956981
aF3.8580024753555495
aF3.2687312376358908
aF2.4477865512840262
aF0.033471259485929078
aF1.8643255630999989
aF1.6737339262118922
aF0.19438245535325982
aF0.28919568674582907
aF0.40405953196530398
aF1.3937568918566579
aF1.3045771890504618
aF1.1561224766342819
aF0.69300487440792946
aF0.73905526083796036
aF0.90828090138584228
aaI179
aI290
aI145
a.