(lp1
I4453
a(lp2
(I0
I3
tp3
a(I0
I3
tp4
a(I0
I3
tp5
a(I0
I3
tp6
a(I0
I3
tp7
a(I0
I3
tp8
a(I0
I3
tp9
a(I0
I3
tp10
a(I0
I3
tp11
a(I0
I3
tp12
a(I0
I3
tp13
a(I0
I3
tp14
a(I0
I3
tp15
a(I0
I3
tp16
a(I0
I3
tp17
a(I0
I3
tp18
a(I0
I1
tp19
a(I0
I2
tp20
a(I0
I2
tp21
a(I0
I1
tp22
a(I0
I0
tp23
a(I0
I1
tp24
a(I0
I2
tp25
a(I0
I2
tp26
a(I0
I2
tp27
a(I0
I2
tp28
a(I0
I2
tp29
a(I0
I2
tp30
a(I0
I2
tp31
a(I0
I2
tp32
a(I0
I2
tp33
a(I0
I2
tp34
a(I0
I2
tp35
a(I0
I2
tp36
a(I0
I2
tp37
aa(lp38
F3.4557418637004567e-05
aF0.12545621589953004
aF0.028247233994407261
aF0.022393207277190946
aF0.41372141592982936
aF3.4557418637559678e-05
aF0.054358819517008383
aF0.030928889680688122
aF0.05252727632921321
aF0.00017278709318795799
aF0.043957036507078322
aF0.01635948198305881
aF0.0082730460218512214
aF0.0027991509096488808
aF0.011196603638595481
aF0.89445139446897592
aF0.0054600721447464196
aF8.846699170883543e-05
aF0.00020734451183024305
aF0.00089849288457855003
aF0.68792070985205112
aF0.11701141950705019
aF0.75625040257588449
aF0.1171569062395148
aF0.00041468902365160432
aF0.22117162617113673
aF0.40551402900339095
aF0.0011473062987690241
aF1.603233726804199
aF0.008017321123932275
aa(lp39
F23.268350430049772
aF16.982958532403728
aF15.153873173407728
aF-7.2876902334542768
aF11.499636944200502
aF9.1938375168421125
aF8.5236368159800548
aF7.6810854740531269
aF6.7832149376419828
aF6.4505602274906142
aF5.3779470210123463
aF4.8717383869468893
aF4.5337037425599407
aF3.8898324615903745
aF3.519227848548558
aF3.0681477922291314
aF2.4159273602172906
aF1.8631349238517898
aF1.3595738590976549
aF0.86990060692646687
aF0.74097777001432685
aF0.54967798258814649
aF0.48769726463487567
aF0.044660294031005042
aF0.075826528213466637
aF0.098402008863943263
aF0.14707751041152056
aF0.26411851548830567
aF0.19221101195640414
aF0.22436589222396938
aa(lp40
F30.693237450270797
aF17.141312099648655
aF15.33939433950122
aF11.526917777587812
aF9.1938452483834219
aF8.5779016108153989
aF7.7275313175532183
aF7.0597120541968135
aF6.7302815569003558
aF5.4708923626247454
aF5.36241696859088
aF4.6486617457163293
aF3.947311297520395
aF3.76689943349548
aF3.5095601862932737
aF2.5118266816554691
aF2.342966702758134
aF1.8502111006997697
aF1.2334574622635974
aF0.84913452636702158
aF0.73033156426676404
aF0.54856182339885406
aF0.46419537827300317
aF0.042983861375931645
aF0.071312351633256513
aF0.096668321544998562
aF0.14491422060564479
aF0.26396298349103642
aF0.19171316964499585
aF0.22029609943443249
aaI172
aI276
aI138
a.