(lp1
I8822
a(lp2
(I0
I3
tp3
a(I0
I3
tp4
a(I0
I3
tp5
a(I0
I3
tp6
a(I0
I3
tp7
a(I0
I3
tp8
a(I0
I3
tp9
a(I1
I3
tp10
a(I0
I3
tp11
a(I0
I3
tp12
a(I0
I3
tp13
a(I2
I2
tp14
a(I2
I2
tp15
a(I1
I2
tp16
aa(lp17
F0.68648642940874671
aF0.14301800612682314
aF0.82235353522922772
aF0.7821297210060596
aF0.057207202450728856
aF0.003575450153171511
aF0.14123028105023616
aF1.583030555316264
aF0.16089525689267492
aF0.35843887785534811
aa(lp18
F44.871949144595746
aF24.279448835036
aF19.585503538613523
aF-8.6961396140414777
aF12.532493276052762
aF0.13286620894823548
aF1.0999481453112929
aF5.7447094055232935
aF3.1194335039620098
aF4.3865405956364887
aa(lp19
F45.027407655256198
aF27.863802897018694
aF19.827595746302148
aF12.99998851385036
aF6.7842506190536591
aF0.12658434467108279
aF0.94846923920262582
aF2.8046512495922817
aF4.5754245730220369
aF3.951749790785382
aaI57
aI86
aI43
a.