(lp1
I7855
a(lp2
(I0
I3
tp3
a(I0
I3
tp4
a(I0
I3
tp5
a(I0
I3
tp6
a(I0
I3
tp7
a(I0
I3
tp8
a(I0
I3
tp9
a(I0
I3
tp10
a(I0
I3
tp11
a(I0
I3
tp12
a(I0
I3
tp13
a(I0
I3
tp14
a(I0
I3
tp15
a(I0
I3
tp16
a(I0
I3
tp17
a(I0
I3
tp18
a(I0
I3
tp19
a(I0
I3
tp20
a(I0
I3
tp21
a(I0
I2
tp22
a(I0
I2
tp23
a(I0
I2
tp24
a(I0
I2
tp25
a(I0
I0
tp26
a(I0
I1
tp27
a(I0
I2
tp28
a(I0
I2
tp29
a(I0
I2
tp30
a(I0
I2
tp31
a(I0
I2
tp32
a(I0
I1
tp33
a(I0
I2
tp34
a(I0
I2
tp35
a(I0
I2
tp36
a(I0
I2
tp37
aa(lp38
F0.025847281304988812
aF0.27907120200464641
aF1.2742037531830945
aF0.016351613421313971
aF0.014335158851430663
aF0.21056674084387383
aF0.0075708703396948351
aF0.029513562341147548
aF0.18269078403221606
aF0.1837601160010971
aF0.28275581444598963
aF0.0024747396994131421
aF0.004197891786408281
aF0.23998253569071437
aF0.66651767143839891
aF0.0010998843108467327
aF0.0098989587976499038
aF0.83787964706886298
aF0.011768762126088461
aF0.028945288780541034
aF0.13097789001706817
aF0.029770202013679636
aF0.00021997686217112289
aF0.66315080335352139
aF0.46965060073302922
aF0.11905025571270045
aF0.010925517487756053
aF0.025517316011709923
aF0.42456145445656546
aF0.075800360422759283
aa(lp39
F21.319361026783174
aF16.917154309728829
aF-5.4337023972388963
aF14.551726800285724
aF14.239581740865432
aF12.61047084641721
aF11.930461260258346
aF9.923807247836562
aF9.5701106098209525
aF9.0149752220604871
aF8.0774623877225054
aF7.2788982764944858
aF6.0935203536941716
aF5.563539393928675
aF5.4169875358268067
aF5.1316994719352529
aF4.6924449353416149
aF0.0078886374856457081
aF0.14797624256825515
aF0.20976847256918854
aF0.28550007300148017
aF0.94786251613607175
aF1.1296343475906432
aF4.0466097131001062
aF3.45879061605106
aF1.8204718483015074
aF2.0413766702232246
aF2.3732332417695132
aF2.5568603334317843
aF2.964941711216055
aa(lp40
F21.399544813575243
aF20.89918602016855
aF16.145098421203176
aF14.551722129703046
aF12.620996888685312
aF12.249320460326793
aF10.051986837877113
aF9.8123209151395301
aF9.0361992543344201
aF8.1291980209390395
aF7.2907088805900564
aF0.0056500878130339178
aF0.1470236764563724
aF0.19743707638066565
aF0.27897105173832959
aF0.92620879146725743
aF1.1187748499800738
aF1.4953291056335984
aF1.8216729762624557
aF2.2986576457286469
aF2.5067163477667695
aF2.7344778042625744
aF2.9947041728386328
aF3.9559489718249745
aF6.1107106564224836
aF4.5629122201437395
aF5.6688151673592229
aF5.5392995277667882
aF5.1536806589720898
aF5.1032638432461273
aaI179
aI290
aI145
a.