(lp1
I8447
a(lp2
(I0
I3
tp3
a(I0
I3
tp4
a(I0
I3
tp5
a(I0
I3
tp6
a(I0
I3
tp7
a(I0
I3
tp8
a(I0
I3
tp9
a(I0
I3
tp10
a(I0
I3
tp11
a(I0
I3
tp12
a(I0
I3
tp13
a(I0
I3
tp14
a(I0
I3
tp15
a(I0
I3
tp16
a(I0
I3
tp17
a(I0
I3
tp18
a(I0
I3
tp19
a(I0
I3
tp20
a(I0
I3
tp21
a(I0
I3
tp22
a(I0
I3
tp23
a(I0
I2
tp24
a(I0
I2
tp25
a(I0
I1
tp26
a(I0
I1
tp27
a(I0
I2
tp28
a(I0
I1
tp29
a(I0
I2
tp30
a(I0
I0
tp31
a(I0
I1
tp32
a(I0
I2
tp33
a(I0
I2
tp34
a(I0
I2
tp35
a(I0
I2
tp36
a(I0
I2
tp37
aa(lp38
F0.32424558346513666
aF0.0060738113959706297
aF0.033369373452553752
aF0.10384022133590531
aF0.0026344242199386469
aF0.0030003164727074871
aF0.29630767723146834
aF0.41987355646110985
aF0.34582916090904448
aF0.0025612457693847124
aF0.0066592390003977209
aF0.41372656661458795
aF0.00685438153521023
aF0.00029271380221536532
aF0.03351573035365818
aF0.29871443516079388
aF0.0017074971795896926
aF0.24961169483916412
aF0.0033662087254768668
aF0.95744245422965291
aF0.00073178450553790242
aF0.14928403912984708
aF0.1916177727752425
aF0.0025612457693841018
aF0.061543076915783979
aF0.0062689539307794195
aF0.32388782215131529
aF0.46819572664349773
aF0.00029271380221551624
aF1.2779721985944419
aa(lp39
F37.856344471165713
aF22.994551758290083
aF16.845330872118449
aF-4.8975721099379319
aF11.570806743952025
aF10.809196531318491
aF10.034747249763836
aF9.0803981171253429
aF8.9781155615597346
aF8.0957373793629515
aF6.9122379337887665
aF5.93454855489209
aF6.195348645725276
aF5.0173571634290912
aF4.3628736841355114
aF3.0078035387614404
aF2.2219472840501377
aF2.3368719924772803
aF2.3182490827315658
aF1.6978464226692307
aF1.4743594759971541
aF1.3577778372386353
aF1.0775251593848656
aF0.048862121219534524
aF0.84655040740419873
aF0.63499891767897465
aF0.56730590237038092
aF0.19302099743109327
aF0.25753267349439685
aF0.28128534726948734
aa(lp40
F37.924314876637652
aF28.262581784028388
aF16.862646640131025
aF11.578929160311551
aF10.865500325869897
aF10.199253014634541
aF9.0805405862748252
aF8.9841016121074393
aF8.0989982022640969
aF6.9124962353961505
aF6.6423492490214393
aF6.1622597073652514
aF5.1920623862243946
aF4.8579713534546558
aF4.1737491771605111
aF3.0078005312036766
aF2.2495023066797235
aF2.322358746159241
aF1.9199724614847484
aF1.5928279946458821
aF1.4147435562962383
aF1.1663937586647681
aF1.0158351818161397
aF0.7568520080263097
aF0.63488185143202391
aF0.56545277352255019
aF0.046670346965673112
aF0.14328078532077318
aF0.24822227564393753
aF0.27570034130572774
aaI170
aI272
aI136
a.