(lp1
I2888
a(lp2
(I0
I3
tp3
a(I0
I3
tp4
a(I0
I3
tp5
a(I0
I3
tp6
a(I0
I3
tp7
a(I0
I3
tp8
a(I0
I3
tp9
a(I0
I3
tp10
a(I0
I3
tp11
a(I0
I3
tp12
a(I0
I3
tp13
a(I0
I3
tp14
a(I0
I3
tp15
a(I0
I2
tp16
a(I0
I2
tp17
a(I0
I2
tp18
a(I0
I2
tp19
a(I0
I2
tp20
a(I0
I2
tp21
a(I0
I2
tp22
a(I0
I1
tp23
a(I0
I0
tp24
a(I0
I1
tp25
a(I0
I2
tp26
a(I0
I2
tp27
a(I0
I0
tp28
a(I0
I1
tp29
a(I0
I2
tp30
a(I0
I2
tp31
a(I0
I2
tp32
a(I0
I2
tp33
a(I0
I1
tp34
a(I0
I2
tp35
a(I0
I2
tp36
a(I0
I2
tp37
a(I0
I2
tp38
aa(lp39
F0.96564732090111316
aF0.65191416043246464
aF0.0016572756114981669
aF0.16046540866075382
aF0.0036169737798391055
aF0.00084678315915986957
aF0.0062540984755039553
aF0.0011371088137250851
aF0.019984082556167678
aF0.013984019028409289
aF0.026976092070371216
aF0.0057339316777381619
aF0.00014516282728505026
aF0.0030363224706971559
aF0.99017983871219573
aF0.02349218421554336
aF0.0092299364348429336
aF0.0041371405776106374
aF0.0079234709892830324
aF0.031464042813917681
aF0.00087097696370697086
aF4.8387609094091566e-05
aF0.87276125679243555
aF0.041540762407918846
aF0.00052016679776878405
aF0.063714384275626507
aF0.18111482084197494
aF0.27674083331564481
aF0.002080667191084018
aF0.17900995984634746
aa(lp40
F21.423610493273742
aF17.851581793201525
aF16.237718517409419
aF16.331163806905263
aF13.555609617282828
aF10.623575741484258
aF9.6946083143017656
aF9.2632253851929462
aF-3.8235831844118033
aF6.9193288818939171
aF5.9475582480787246
aF4.8986171397030258
aF3.7261191274068426
aF3.4941022648906039
aF3.2285023517278315
aF2.7335866655598258
aF2.4827823589456566
aF2.2845286491036858
aF2.1462794602636861
aF1.9943321118801742
aF0.094198401511208563
aF0.1179825936851709
aF0.22741595786749152
aF0.30089209029295827
aF0.33841064445983837
aF0.61877592155200767
aF0.79703876887232206
aF1.0146037226698024
aF1.0997099907626127
aF1.1471618777088852
aa(lp41
F23.410315392260653
aF18.326457427821289
aF17.222010620509003
aF16.33058344450064
aF14.607698642974615
aF11.600572125478216
aF10.600445504225238
aF9.4020634339850151
aF6.9278048475505623
aF6.0574024486753348
aF4.8986204392976962
aF3.7837115711386766
aF3.7101210531294115
aF3.4786901073147036
aF2.8565796572798479
aF2.7335644797860699
aF2.3889440260562917
aF2.147096249083595
aF1.9945517436032223
aF1.7923014161690998
aF0.068723496387534666
aF0.11692293275487123
aF0.17175745671413412
aF0.27880670738079844
aF0.33803531283043076
aF0.61874086635210801
aF0.79063649561173077
aF0.98702448020456746
aF1.0955401090432078
aF1.1366596203604813
aaI178
aI288
aI144
a.