(lp1
I6030
a(lp2
(I0
I3
tp3
a(I0
I3
tp4
a(I0
I3
tp5
a(I0
I3
tp6
a(I0
I3
tp7
a(I0
I3
tp8
a(I0
I3
tp9
a(I0
I3
tp10
a(I0
I3
tp11
a(I0
I3
tp12
a(I0
I3
tp13
a(I0
I3
tp14
a(I0
I3
tp15
a(I0
I3
tp16
a(I0
I3
tp17
a(I0
I3
tp18
a(I0
I3
tp19
a(I0
I3
tp20
a(I0
I3
tp21
a(I0
I2
tp22
a(I0
I2
tp23
a(I0
I2
tp24
a(I0
I2
tp25
a(I0
I1
tp26
a(I0
I1
tp27
a(I0
I2
tp28
a(I0
I2
tp29
a(I0
I1
tp30
a(I0
I2
tp31
a(I0
I2
tp32
a(I0
I2
tp33
a(I0
I2
tp34
a(I0
I2
tp35
a(I0
I2
tp36
aa(lp37
F0.29258101113958146
aF0.88334310974044628
aF0.0083744117678590246
aF0.17104221981558634
aF0.1055275578128448
aF1.8692883410412805e-05
aF0.28790155932584505
aF0.22876662265704495
aF0.0023366104262997345
aF2.4923844547442009e-05
aF0.0030157851902115063
aF1.869288341049824e-05
aF0.0013334256832744362
aF0.26798662866248957
aF6.2309611366107021e-06
aF0.0042993631843923352
aF0.0059318750022337805
aF0.091676131205738781
aF0.047373997523091016
aF0.0060502632638337328
aF0.47653611904104459
aF0.013010246853638746
aF0.29390820586172017
aF0.42630366809644493
aF0.17631750728803075
aF0.0010063002235931595
aF0.18094088045153489
aF5.6078650231383698e-05
aF0.011165882357145218
aF0.12898712649289759
aa(lp38
F15.360961284815566
aF12.620582039239327
aF12.132908497389295
aF11.323023603775484
aF10.495146266284891
aF9.1291869660638589
aF-2.2913997420155128
aF7.7095745165102629
aF7.5439726194263219
aF6.6979883124891533
aF6.7792794212992211
aF5.9993418137583268
aF5.6585786055806775
aF5.1223499382081155
aF4.6067574374371381
aF4.2827357666555752
aF3.5673317005335257
aF3.1850548246838164
aF3.1442412572208887
aF3.0197201091592278
aF2.5728425434926261
aF2.0193738157298364
aF2.1492253345434547
aF0.68978834434578784
aF0.46598466322344895
aF0.1262748041517972
aF0.042109610861851561
aF0.082803379345414499
aF0.069860404812799246
aF0.070263686508062737
aa(lp39
F15.812169354826512
aF12.977695602878743
aF12.484382742814178
aF11.934284741575551
aF10.513118240928078
aF9.2056508931033338
aF7.709729053465904
aF7.5440892190359721
aF6.6980349806322144
aF6.7793586026740753
aF6.1460580676592746
aF5.7694239895695647
aF5.6170700689400546
aF4.7311540631839
aF4.5317484770826697
aF3.8941578356910957
aF3.3662783141770509
aF3.1486396431853585
aF3.0325115292314373
aF2.573289610548041
aF2.3673112994575303
aF2.0952576112720847
aF0.84952760749172751
aF0.6532856821135905
aF0.35212645995773939
aF0.12567651606273869
aF0.041996747647056402
aF0.082523688009776303
aF0.069546959333045041
aF0.070234986366167512
aaI176
aI284
aI142
a.