(lp1
I1142
a(lp2
(I0
I3
tp3
a(I0
I3
tp4
a(I0
I3
tp5
a(I0
I3
tp6
a(I0
I3
tp7
a(I0
I3
tp8
a(I0
I3
tp9
a(I0
I3
tp10
a(I0
I3
tp11
a(I0
I3
tp12
a(I0
I3
tp13
a(I0
I3
tp14
a(I0
I3
tp15
a(I0
I3
tp16
a(I0
I3
tp17
a(I0
I3
tp18
a(I0
I3
tp19
a(I0
I3
tp20
a(I0
I2
tp21
a(I0
I2
tp22
a(I0
I2
tp23
a(I0
I2
tp24
a(I0
I1
tp25
a(I0
I1
tp26
a(I0
I1
tp27
a(I0
I2
tp28
a(I0
I2
tp29
a(I0
I1
tp30
a(I0
I1
tp31
a(I0
I2
tp32
a(I0
I2
tp33
a(I0
I2
tp34
a(I0
I2
tp35
a(I0
I2
tp36
a(I0
I1
tp37
a(I0
I1
tp38
a(I0
I2
tp39
a(I0
I2
tp40
a(I0
I2
tp41
a(I0
I2
tp42
a(I0
I2
tp43
a(I0
I2
tp44
a(I0
I1
tp45
a(I0
I1
tp46
a(I0
I2
tp47
a(I0
I0
tp48
a(I0
I0
tp49
a(I0
I2
tp50
a(I0
I2
tp51
a(I0
I2
tp52
a(I0
I2
tp53
a(I0
I2
tp54
a(I0
I1
tp55
a(I0
I2
tp56
a(I0
I2
tp57
a(I0
I2
tp58
aa(lp59
F2.9782278929468831e-05
aF0.00010423797625369602
aF0.0076480892289424451
aF0.0060130421157427172
aF0.74243945319068394
aF0.14370843051562843
aF0.92650287165497147
aF2.9782278928802697e-05
aF0.0068260983305066247
aF0.2342822971942066
aF1.1912911569211815e-05
aF0.0057628709727425287
aF0.51141235908342253
aF6.5521013647984461e-05
aF0.018039126347236589
aF0.0026774268757074893
aF0.014772010348727882
aF0.42309003269186718
aF8.9346836777970395e-06
aF2.0847595247452944e-05
aF0.71147630690224961
aF0.0069869226367216264
aF2.9782278928358608e-05
aF2.9782278927470429e-06
aF0.00058968912279055985
aF0.036483291687900099
aF1.1912911573652707e-05
aF0.007025639599327782
aF0.0026804051036015686
aF0.0056437418570256526
aF1.1912911571487772e-05
aF0.00014295493886065658
aF0.0079846289808369192
aF0.00058968912278967167
aF0.35814381703160825
aF0.30350822633654351
aF0.66519017810489256
aF0.43391142374067759
aF0.0028442076377095393
aF1.7869367359507615e-05
aF1.1912911570099993e-05
aF0.059436494058407383
aF0.0015278309090527298
aF0.0010602491298682126
aF0.00010423797624703468
aF0.0026059494062771194
aF0.020114951188575647
aF8.9346836785186845e-06
aF0.00066116659222181795
aF0.049787035685442849
aa(lp60
F24.027793945147003
aF18.773678293196959
aF17.139622520860456
aF15.76768794519827
aF13.253347641805817
aF12.753380536198172
aF-4.5282779781003404
aF9.6428331190626384
aF9.463789485901609
aF9.2028302647010047
aF8.2305764161728803
aF7.3934271216611709
aF6.3570813425251842
aF6.689625502152186
aF4.9727617904589101
aF4.6226950255038171
aF4.3955937523437214
aF4.0011788394535674
aF3.8116291508976037
aF2.9768985498140665
aF2.6980785656937969
aF2.5070431941059566
aF2.1301895251781127
aF1.9561333275727939
aF1.4922299883100563
aF1.3567924419940682
aF1.2850033252048436
aF1.0354005826149912
aF0.84791532508775957
aF0.57199821042328602
aF0.36822676403512972
aF0.22263056553439894
aF0.20049123262041194
aF0.1563884485492972
aF0.14894502766569412
aF0.12623718118397723
aF0.12276925157634401
aF0.1137105189150758
aF0.00039690750480152729
aF0.0085583380400630384
aF0.093200637344552223
aF0.086546887156796468
aF0.02991126854577357
aF0.031200083799648611
aF0.077117500411438611
aF0.044752938254018243
aF0.050663912541527696
aF0.051489168124948893
aF0.057925308133265581
aF0.057021724545062588
aa(lp61
F24.280117097758911
aF18.802875843698118
aF17.232991306385777
aF16.270281812302084
aF14.658203708892191
aF12.75342824938947
aF11.736646536006228
aF9.6010288698481734
aF9.2071502470235291
aF8.3897331643602939
aF7.5291090302595043
aF7.2309417294834262
aF6.623829001147115
aF5.3428110113254368
aF4.6242635315422067
aF4.4461827542369541
aF4.006511382269597
aF3.9050736334266007
aF3.6431534580125202
aF2.9717595958472587
aF2.5109767572636872
aF2.2421607050235597
aF1.9736331937479525
aF1.8312405236203513
aF1.3976127480377085
aF1.3558639089196882
aF1.179996387762364
aF0.99283225067957526
aF0.8102974773878725
aF0.55224935926686713
aF0.30114559333665036
aF0.22133426381764545
aF0.1783863770494501
aF0.14786932275505471
aF0.14899016089826173
aF0.12441855410498458
aF0.12276921025525071
aF0.11350731968032973
aF0.00039529012485124904
aF0.0085111320894875244
aF0.092086844696115208
aF0.08514748763817323
aF0.076892353139221548
aF0.03090904627667939
aF0.029910267381456263
aF0.044748307620785549
aF0.057762365671065581
aF0.054795172215975699
aF0.050091854924307525
aF0.051473980334455098
aaI282
aI456
aI228
a.