(lp1
I6593
a(lp2
(I0
I3
tp3
a(I0
I3
tp4
a(I0
I3
tp5
a(I0
I3
tp6
a(I0
I3
tp7
a(I0
I3
tp8
a(I0
I3
tp9
a(I0
I3
tp10
a(I0
I3
tp11
a(I0
I3
tp12
a(I0
I3
tp13
a(I0
I3
tp14
a(I0
I3
tp15
a(I0
I3
tp16
a(I0
I3
tp17
a(I0
I3
tp18
a(I0
I3
tp19
a(I0
I3
tp20
a(I0
I3
tp21
a(I0
I1
tp22
a(I0
I2
tp23
a(I0
I2
tp24
a(I0
I2
tp25
a(I0
I2
tp26
a(I0
I2
tp27
a(I0
I1
tp28
a(I0
I1
tp29
a(I0
I1
tp30
a(I0
I2
tp31
a(I0
I2
tp32
a(I0
I2
tp33
a(I0
I2
tp34
a(I0
I2
tp35
a(I0
I2
tp36
aa(lp37
F0.18884260683336546
aF0.24934827283952465
aF0.0050659735357245772
aF0.011482873347642419
aF0.57236213335540298
aF0.087265615797472329
aF0.011069152175555985
aF7.5989603032400321e-05
aF0.9367164487451034
aF7.5989603036841213e-05
aF0.0046860255205452006
aF0.0028116153123273202
aF0.12974802553913573
aF0.32980332046490585
aF0.031611674862922157
aF0.35997963615937228
aF0.1899402344327677
aF7.5989603036091813e-05
aF0.030979483582118661
aF0.011069152175559704
aF0.69523837687556167
aF0.10138701702830361
aF0.52870821723360262
aF0.48965167209547183
aF0.0051419631387601417
aF0.068323096418474893
aF0.085239226383184152
aF0.0071176928176932891
aF0.18481515787246283
aF0.022087644615758073
aa(lp38
F18.45082302893697
aF14.150280547300307
aF12.957138994933274
aF12.338170847390735
aF11.058874183499981
aF-3.1279051855916125
aF9.7427257510729142
aF9.0704011260845281
aF7.7308209123163021
aF7.4183942212482892
aF6.7969852318307638
aF6.5684838298705452
aF6.1451835062864308
aF5.5407794710862328
aF4.6653584661537577
aF4.511156552956165
aF3.6149582409977388
aF3.1703466574509291
aF2.6409777723255967
aF2.436877830477969
aF2.2977524002403573
aF2.037578527986835
aF1.7259106407174565
aF0.87178815708679613
aF0.0050385546586948554
aF0.31640954662217297
aF0.23370793952775096
aF0.13725326698554358
aF0.1511191886084805
aF0.14654655814222822
aa(lp39
F20.02960722942225
aF14.674141341099066
aF13.111406386025392
aF12.662400208929329
aF11.538276756041988
aF10.594069813281507
aF9.0890404278445036
aF8.181076722332925
aF7.7273249408003677
aF7.0326519233044831
aF6.7721073401246805
aF6.1455218199037738
aF5.6118183868199569
aF4.7263091028108004
aF4.5115847708354986
aF3.9664560869762036
aF3.2236516708330467
aF2.9655325608818481
aF2.5706319306865177
aF2.4271439758663513
aF2.0402665086233371
aF1.7526258278021463
aF1.3948380333166848
aF0.83198910285961147
aF0.005037682919273063
aF0.30093726127989234
aF0.099952694198438941
aF0.17820143726994389
aF0.14616883016213461
aF0.14808052993149515
aaI172
aI276
aI138
a.