(lp1
I6801
a(lp2
(I0
I3
tp3
a(I0
I3
tp4
a(I0
I3
tp5
a(I0
I3
tp6
a(I0
I3
tp7
a(I0
I3
tp8
a(I0
I3
tp9
a(I0
I3
tp10
a(I0
I3
tp11
a(I0
I3
tp12
a(I0
I3
tp13
a(I0
I3
tp14
a(I0
I3
tp15
a(I0
I3
tp16
a(I0
I3
tp17
a(I0
I3
tp18
a(I0
I3
tp19
a(I0
I3
tp20
a(I0
I3
tp21
a(I0
I3
tp22
a(I0
I3
tp23
a(I0
I3
tp24
a(I0
I2
tp25
a(I0
I2
tp26
a(I0
I2
tp27
a(I0
I2
tp28
a(I0
I1
tp29
a(I0
I1
tp30
a(I0
I2
tp31
a(I0
I1
tp32
a(I0
I2
tp33
a(I0
I2
tp34
a(I0
I2
tp35
a(I0
I2
tp36
aa(lp37
F0.35897736317685869
aF0.0017752316653427483
aF0.0020433035611158168
aF0.054528206461568196
aF0.25737165712464405
aF0.00047657225915198609
aF0.018389732050044572
aF0.00020850036338071476
aF0.0031096339909671977
aF0.13785605580154736
aF0.34779595334677793
aF1.0538353843341755
aF0.0042057501870214134
aF0.00017871459718235561
aF0.14700645763478609
aF0.010684750050200087
aF0.01388969849299837
aF0.00063741539661421598
aF0.55283725995458788
aF0.039317211380073269
aF0.0069698692901045689
aF0.45367623853448458
aF0.0072915555650348296
aF0.011951288486125922
aF0.27334874211274096
aF0.00011914306478755243
aF0.081012518333338474
aF0.13363532933132033
aF0.40670590813067264
aF1.0624879945284029
aa(lp38
F14.079658543762353
aF13.81683276428817
aF12.984883370357059
aF-4.3766996099567894
aF10.620737726512838
aF9.4953445861776906
aF8.2334949746357342
aF7.2378848507101452
aF6.4963884221803498
aF5.9442963085865355
aF5.2097447302001196
aF4.3842710439546959
aF4.1859162744526506
aF3.7943597859269351
aF3.244253446369298
aF2.8545547102052371
aF2.9354787075222055
aF2.382790855181268
aF2.0642967457607622
aF1.8267008133167866
aF1.870328589204818
aF1.1904619502332159
aF0.77285905560110968
aF0.55479401588191302
aF0.0018863779032060289
aF0.400462646026988
aF0.33843946119271173
aF0.18222752382642055
aF0.23907578329812246
aF0.25783489275596955
aa(lp39
F18.619545152292755
aF14.072119493881209
aF13.030156611773652
aF11.330119749918737
aF9.4961329296556301
aF8.2674153129435357
aF7.2884491898708506
aF7.2198897979620371
aF6.4961096029035961
aF5.2111422612834781
aF4.4653754927238278
aF4.2874601456222683
aF3.9045808822901931
aF3.2444356192145269
aF3.1040211985142263
aF2.9212782332164746
aF2.5456899003880311
aF2.356021901424139
aF1.8863501606567024
aF1.8267018417704781
aF1.5531628686364729
aF1.0406679519124189
aF0.73494834515396656
aF0.0018639922642040864
aF0.47171354713721786
aF0.38602086890569776
aF0.33595194936911532
aF0.18163366869774583
aF0.21283995169140746
aF0.24207328107215439
aaI172
aI276
aI138
a.