(lp1
I6693
a(lp2
(I0
I3
tp3
a(I0
I3
tp4
a(I0
I3
tp5
a(I0
I3
tp6
a(I0
I3
tp7
a(I0
I3
tp8
a(I0
I3
tp9
a(I0
I3
tp10
a(I0
I3
tp11
a(I0
I3
tp12
a(I0
I3
tp13
a(I0
I3
tp14
a(I0
I3
tp15
a(I0
I3
tp16
a(I0
I3
tp17
a(I0
I3
tp18
a(I0
I3
tp19
a(I0
I3
tp20
a(I0
I2
tp21
a(I0
I2
tp22
a(I0
I2
tp23
a(I0
I0
tp24
a(I0
I1
tp25
a(I0
I2
tp26
a(I0
I1
tp27
a(I0
I2
tp28
a(I0
I2
tp29
a(I0
I2
tp30
a(I0
I1
tp31
a(I0
I2
tp32
a(I0
I2
tp33
a(I0
I1
tp34
a(I0
I2
tp35
a(I0
I1
tp36
a(I0
I2
tp37
aa(lp38
F0.00029894685254805431
aF0.0030658910291314623
aF4.7202134613219537e-05
aF0.051704961372414981
aF0.66814011448694521
aF0.043048346766804843
aF0.017362518515047207
aF0.022614317920886862
aF0.0035896099512635615
aF0.10436873617308218
aF0.64339784727300775
aF0.00018206537636322739
aF0.044987166418449132
aF0.0031670384604438606
aF0.017756993497167056
aF0.084625881441137363
aF0.0030501569842602133
aF0.248933782652901
aF0.098949481575402523
aF3.1468089741915062e-05
aF1.0901421292121847
aF6.2936179483613283e-05
aF0.46120980958023844
aF0.0045741116160427087
aF0.39363337127151471
aF0.00056642561535270863
aF0.0020948756885267317
aF1.1386659235940677
aF0.27120387820436709
aF0.43496301446338959
aa(lp39
F21.2965179788754
aF17.885570607026459
aF13.845420751292002
aF-6.2495584888827675
aF11.940632556096595
aF10.781800623512726
aF9.5076376822387196
aF8.4356994539555252
aF7.7466672216671526
aF7.5880102848638469
aF6.3583779761566834
aF5.4373099111272669
aF4.4200231607444644
aF4.1131036935804577
aF3.800463503659365
aF3.2320799577275539
aF2.5340656499679155
aF2.423791821944238
aF1.7936563467065045
aF1.6244206462853079
aF1.2756269484643417
aF0.83368842314232294
aF0.48271106924261858
aF0.32068054742725233
aF0.29745217002010205
aF0.026878197692629582
aF0.058628248366362774
aF0.14512974242449983
aF0.091806751808601539
aF0.10966576857827975
aa(lp40
F25.797856115933318
aF17.909699274260721
aF14.030558880403767
aF12.246703159655912
aF11.437610500870939
aF9.9544057342387902
aF8.6514060679536016
aF8.1780748990709498
aF7.7465794886611796
aF6.5125245814047918
aF5.5293315180464777
aF4.8579711388410551
aF4.1567072573968717
aF3.8240783600630182
aF3.3211761057637981
aF2.6569379532429496
aF2.4687173855109679
aF2.3317496598912024
aF1.766232605946942
aF1.5685879575447113
aF1.2409764288427143
aF0.79242679427345253
aF0.45192300785044442
aF0.32036806908857235
aF0.277342658705312
aF0.026855994303176447
aF0.054853502805451586
aF0.14096586821284843
aF0.091804773101698892
aF0.1067630697193506
aaI180
aI292
aI146
a.