(lp1
I4262
a(lp2
(I0
I3
tp3
a(I0
I3
tp4
a(I0
I3
tp5
a(I0
I3
tp6
a(I0
I3
tp7
a(I0
I3
tp8
a(I0
I3
tp9
a(I0
I3
tp10
a(I0
I3
tp11
a(I0
I3
tp12
a(I0
I3
tp13
a(I0
I3
tp14
a(I0
I3
tp15
a(I0
I3
tp16
a(I0
I3
tp17
a(I0
I3
tp18
a(I0
I1
tp19
a(I0
I2
tp20
a(I0
I2
tp21
a(I0
I1
tp22
a(I0
I2
tp23
a(I0
I1
tp24
a(I0
I2
tp25
a(I0
I2
tp26
a(I0
I2
tp27
a(I0
I2
tp28
a(I0
I2
tp29
a(I0
I1
tp30
a(I0
I2
tp31
a(I0
I2
tp32
a(I0
I2
tp33
a(I0
I2
tp34
a(I0
I2
tp35
a(I0
I2
tp36
aa(lp37
F0.77234401164921263
aF0.67485803719920978
aF0.031798000249786074
aF0.0013185773628300382
aF0.065928868141503671
aF0.02216224259833588
aF0.035703017824321615
aF0.029515847121811767
aF0.44821487433430818
aF0.013540775225985513
aF0.00040571611163930932
aF0.0016735789605145657
aF0.0016228644465600128
aF0.040368753108179556
aF0.00030428708372998159
aF0.0019271515302901054
aF0.023861178815830053
aF0.45605026674035604
aF0.0089257544560803481
aF0.0034485869489397913
aF0.047367356033971852
aF0.081270008612891242
aF1.1680313281546288
aF0.62823872024607508
aF0.0016228644465602071
aF0.0084693238304851537
aF0.13908455452159324
aF1.0460882793498272
aF0.010142902791000719
aF0.021300095861100654
aa(lp38
F21.231426956827445
aF16.128894663747257
aF-5.3963410211482952
aF12.888011649336152
aF11.773875267894153
aF9.6831264805014445
aF9.056944664131624
aF8.1307130871850735
aF6.5002417452934695
aF6.0213569094350881
aF5.335098703018871
aF4.2475752580931196
aF3.9609344699107534
aF3.860709510110393
aF3.3192280130541207
aF2.8398584999561649
aF0.13723866174130459
aF0.21262759144729551
aF0.30692292488872236
aF0.33332200104023935
aF2.0395123381845708
aF1.9064704352795219
aF1.757466123242204
aF1.5610370262330364
aF1.4599786031942836
aF1.282049322321809
aF1.1612043550965254
aF0.6615804112487309
aF0.84004738611667928
aF0.86932546510714437
aa(lp39
F24.216403697393567
aF16.129954713704212
aF15.353291565672725
aF11.789551197523249
aF10.656340863578047
aF9.4228826557120104
aF8.7181617324146483
aF6.9738823209133614
aF6.3585163018695443
aF5.6351804221956145
aF5.272246465742219
aF4.1605421644998337
aF3.9485360191360535
aF3.5901935078973324
aF3.3169842771571529
aF2.3427053988134636
aF1.9697950897007757
aF1.9048980593673897
aF0.11361774410486512
aF0.21161431518106349
aF0.29169167515510491
aF0.30692669678734019
aF1.6053600389571232
aF1.5517708575622036
aF1.3483659819898501
aF1.1612738025905278
aF1.0336971195843896
aF0.59740376562596065
aF0.68851367745818948
aF0.85378572686900533
aaI177
aI286
aI143
a.