(lp1
I5119
a(lp2
(I0
I3
tp3
a(I0
I3
tp4
a(I0
I3
tp5
a(I0
I3
tp6
a(I0
I3
tp7
a(I0
I3
tp8
a(I0
I3
tp9
a(I0
I3
tp10
a(I0
I3
tp11
a(I0
I3
tp12
a(I0
I3
tp13
a(I0
I3
tp14
a(I0
I3
tp15
a(I0
I3
tp16
a(I0
I3
tp17
a(I0
I3
tp18
a(I0
I3
tp19
a(I0
I3
tp20
a(I0
I3
tp21
a(I0
I1
tp22
a(I0
I2
tp23
a(I0
I2
tp24
a(I0
I2
tp25
a(I0
I2
tp26
a(I0
I2
tp27
a(I0
I2
tp28
a(I0
I1
tp29
a(I0
I1
tp30
a(I0
I1
tp31
a(I0
I2
tp32
a(I0
I2
tp33
a(I0
I2
tp34
a(I0
I2
tp35
a(I0
I2
tp36
aa(lp37
F0.10091491830310484
aF0.17191015692726641
aF4.9951698204431239e-05
aF0.0035881969878845954
aF0.021878843814756799
aF0.00073262490703829286
aF0.0021978747211174599
aF0.5772057482559676
aF0.51767719946470248
aF0.35021135613070631
aF0.0024601211367047404
aF0.0058984630299701024
aF0.33326801760825564
aF0.00012487924551685126
aF0.0083294456760514279
aF0.0002372705664845931
aF0.69638911263118253
aF0.35845338633489621
aF0.2230079690988882
aF0.00012487924551685126
aF1.1660960312508939
aF0.0057444452938288926
aF0.10788318020300713
aF0.16065159917023064
aF0.23470221666806401
aF0.085983523180667154
aF0.00086999207710980464
aF0.24471336951709199
aF0.76649493351782061
aF0.14368605989301764
aa(lp38
F18.94113575098271
aF16.550558433392265
aF15.234033263326205
aF13.730346632651269
aF12.673286106730362
aF13.243968203559177
aF-4.9236586813637953
aF9.9625517708547484
aF9.1766602747766424
aF8.8764757700127355
aF8.3610303449412164
aF6.2428192895602761
aF6.0550202707483844
aF5.3093179477936303
aF4.8545560566650714
aF4.5524432898922385
aF4.03669848728142
aF3.6701188104960787
aF2.6946276794598552
aF2.5278256847216891
aF1.5445069479939548
aF1.2063506960162207
aF1.0456466350867868
aF0.37989579518052885
aF0.044843693258312972
aF0.091237061369774233
aF0.15158864632811275
aF0.27525143289940601
aF0.20720571168705132
aF0.24295518385500212
aa(lp39
F20.163803113150003
aF18.189830867050759
aF16.549234517536835
aF14.458758248188623
aF13.287944629670514
aF12.789254338205428
aF10.483819467389159
aF9.6337141641239512
aF9.1185808761791609
aF8.7804487835664631
aF6.58428496494101
aF6.2174256813071409
aF5.5756478528210014
aF5.0694851174198101
aF4.5811275737554613
aF4.0410788131900404
aF3.6721836989773444
aF2.9732785511296163
aF2.5387821838851141
aF1.912047323082517
aF1.5273243879905216
aF1.202655104851968
aF0.90889732096284082
aF0.37614772226956333
aF0.034110627958518061
aF0.090479242226523329
aF0.14804591029724123
aF0.27242471623773945
aF0.20718491072037021
aF0.23601484555805227
aaI173
aI278
aI139
a.