(lp1
I453
a(lp2
(I0
I3
tp3
a(I0
I3
tp4
a(I0
I3
tp5
a(I0
I3
tp6
a(I0
I3
tp7
a(I0
I3
tp8
a(I0
I3
tp9
a(I0
I3
tp10
a(I0
I3
tp11
a(I0
I3
tp12
a(I0
I3
tp13
a(I0
I3
tp14
a(I0
I3
tp15
a(I0
I3
tp16
a(I0
I3
tp17
a(I0
I3
tp18
a(I0
I3
tp19
a(I0
I3
tp20
a(I0
I2
tp21
a(I0
I2
tp22
a(I0
I2
tp23
a(I0
I2
tp24
a(I0
I2
tp25
a(I0
I2
tp26
a(I0
I0
tp27
a(I0
I1
tp28
a(I0
I2
tp29
a(I0
I1
tp30
a(I0
I2
tp31
a(I0
I2
tp32
a(I0
I1
tp33
a(I0
I2
tp34
a(I0
I1
tp35
a(I0
I2
tp36
a(I0
I2
tp37
aa(lp38
F3.7778467694371543e-05
aF0.0033056159234563509
aF0.87929816442208253
aF7.5556935393850111e-05
aF0.075830829284082468
aF0.062830314087976957
aF0.095130903968603964
aF0.00010703899180708465
aF0.076966806819682709
aF0.25803001698608341
aF0.0083679305948075045
aF0.58938338305050575
aF0.064931741353603911
aF1.8889233848851106e-05
aF0.00060445548314622122
aF0.69340481975038593
aF0.0043823022528091116
aF0.0083679305948070049
aF0.39945023466473262
aF0.30470688792810535
aF0.051208712962797498
aF0.002795606609552026
aF0.1742909607184549
aF0.39131382835980633
aF0.0043067453174174108
aF0.2462731086059437
aF0.0039289606404500077
aF6.9260524109937549e-05
aF0.65158917184436926
aF0.30769145246375712
aa(lp39
F16.625849931338564
aF13.638285771955157
aF12.166427980610026
aF-4.4944472414988681
aF10.968165473871281
aF10.349733653951482
aF9.8997776969766118
aF8.4602683569402828
aF7.4853717849326076
aF6.4680993308337431
aF6.1643087951809994
aF5.4268193669952351
aF4.8058901522100772
aF4.5053517539338701
aF4.1298382230208093
aF3.7210700354522701
aF3.5597467120400075
aF2.9065194247173247
aF2.176891601943177
aF1.8885127173388743
aF1.2421542346545029
aF0.90649089355584744
aF0.39866442323745277
aF0.32804676107285535
aF0.021444526172579682
aF0.22382469863528209
aF0.1576180813451401
aF0.097267117366341443
aF0.11436603893928185
aF0.073680900192646184
aa(lp40
F17.082707057227893
aF13.713136035481915
aF13.362698755572948
aF11.55921017348912
aF10.35369792901205
aF10.053167856865002
aF9.6946502942981834
aF7.4860080679027892
aF6.4806678814135523
aF6.2521102564853654
aF5.4271635595452912
aF5.0316898328663013
aF4.5123943789696579
aF4.2006640089037939
aF3.8421774529350374
aF3.5627155550400849
aF2.9065194856855037
aF2.609004418994997
aF2.064403095457652
aF1.6670327360252735
aF1.1912207983899936
aF0.89302341320321899
aF0.3890508101718359
aF0.26284029560786065
aF0.22360773865659447
aF0.020494551059132622
aF0.15723217966891939
aF0.11024853312130954
aF0.094696818729281151
aF0.073620785479169892
aaI173
aI278
aI139
a.