(lp1
I1828
a(lp2
(I0
I3
tp3
a(I0
I3
tp4
a(I0
I3
tp5
a(I0
I3
tp6
a(I1
I3
tp7
a(I1
I3
tp8
a(I0
I3
tp9
a(I0
I3
tp10
a(I1
I2
tp11
a(I1
I2
tp12
a(I1
I2
tp13
a(I1
I2
tp14
a(I0
I2
tp15
a(I0
I1
tp16
aa(lp17
F0.93768437361685741
aF0.23796219753418679
aF0.4107680790768708
aF0.2039675978864457
aF0.47309151176439601
aF1.376781285733512
aF1.4674335514608212
aF0.79887309172191445
aF0.39093789594902206
aF0.070822082599460462
aa(lp18
F41.692382173629753
aF30.824559935536392
aF-13.059692811106382
aF20.524186938888157
aF17.475835759104054
aF0.14740427373730361
aF0.86170271416611843
aF9.5548589018055079
aF5.1380089911277382
aF7.2748119120165748
aa(lp19
F41.831069046958142
aF33.11113767627436
aF21.87809418344666
aF17.523084478491093
aF12.455832809024045
aF8.4898526373709284
aF5.2375497351740341
aF3.7702730628393004
aF0.14443382175327121
aF0.8525758396101778
aaI64
aI100
aI50
a.