(lp1
I5064
a(lp2
(I0
I3
tp3
a(I0
I3
tp4
a(I0
I3
tp5
a(I0
I3
tp6
a(I0
I3
tp7
a(I0
I3
tp8
a(I0
I3
tp9
a(I0
I3
tp10
a(I0
I3
tp11
a(I0
I3
tp12
a(I0
I3
tp13
a(I0
I3
tp14
a(I0
I3
tp15
a(I0
I3
tp16
a(I0
I3
tp17
a(I0
I3
tp18
a(I0
I2
tp19
a(I0
I1
tp20
a(I0
I2
tp21
a(I0
I1
tp22
a(I0
I2
tp23
a(I0
I2
tp24
a(I0
I2
tp25
a(I0
I1
tp26
a(I0
I2
tp27
a(I0
I2
tp28
a(I0
I1
tp29
a(I0
I2
tp30
a(I0
I2
tp31
a(I0
I2
tp32
a(I0
I2
tp33
a(I0
I2
tp34
a(I0
I2
tp35
a(I0
I2
tp36
aa(lp37
F0.0018248853700804091
aF0.0058064534502575427
aF0.00016589867000771363
aF0.012829497147233138
aF0.80682053180230251
aF0.35203697775554915
aF2.7649778334581931e-05
aF0.0017695858134113562
aF0.47729047361108123
aF0.80126292635705598
aF0.023972357816059053
aF0.0054193565535726436
aF0.00027649778334637443
aF0.012138252688869436
aF0.37299550973314155
aF0.002986176060131629
aF8.2949335003665997e-05
aF0.040479275481787896
aF0.031880194419742658
aF0.38306002904692016
aF0.64454398275680058
aF0.0021566827100952431
aF0.0056129050019122495
aF0.089751180473964118
aF0.12481109940217938
aF0.0729124654682205
aF0.10642399680970083
aF0.012691248255561227
aF0.01609217099071077
aF0.0016036871434040034
aa(lp38
F21.831480754018656
aF20.974918493268923
aF17.371575348392437
aF15.27928915087902
aF12.034221616893397
aF11.719320609092678
aF9.3382352782269873
aF9.0278559306913451
aF8.0377923978010237
aF-2.5526539664909094
aF7.0252049552620406
aF6.1644221946690898
aF5.7158847125584078
aF5.5092643604793095
aF4.9768433954228897
aF4.1348305552437781
aF2.7326134616061979
aF2.4213446256452986
aF2.0242445505242488
aF1.8456945833552738
aF1.2306108792837271
aF0.059434415477665765
aF0.092385364489553576
aF0.14598000939904093
aF0.23917620906536846
aF0.335429550259777
aF0.43410237260689066
aF0.68081270838326879
aF0.63669249126002703
aF0.58783740820159736
aa(lp39
F23.990015241910822
aF21.08620700287657
aF17.373197827116314
aF16.362555620941635
aF12.048528435716291
aF11.770499858285373
aF9.4735545699080337
aF9.0839326766526494
aF8.2071671669641795
aF7.7019862261576586
aF6.2127042201002523
aF5.7281296058318336
aF5.5099303863254132
aF5.1068990724204122
aF4.1359112111640446
aF3.8308878666304986
aF2.6680523811310803
aF2.0296431177802918
aF1.8561432574361658
aF1.4834537059403987
aF0.98331783498586045
aF0.67836595920503595
aF0.62640725215137039
aF0.5229678578068625
aF0.38270644804667675
aF0.27131245215546856
aF0.057889526770199339
aF0.091598898052828934
aF0.19929840343755204
aF0.14305910455574264
aaI177
aI286
aI143
a.