(lp1
I821
a(lp2
(I0
I3
tp3
a(I0
I3
tp4
a(I0
I3
tp5
a(I0
I3
tp6
a(I0
I3
tp7
a(I0
I3
tp8
a(I0
I3
tp9
a(I0
I3
tp10
a(I0
I3
tp11
a(I0
I3
tp12
a(I1
I2
tp13
a(I0
I1
tp14
a(I1
I2
tp15
a(I1
I2
tp16
aa(lp17
F0.0011738961475563636
aF0.34659283756603942
aF0.083346626476506591
aF1.0849735143790347
aF1.3364807639930034
aF2.066057219699327
aF0.11856351090319994
aF1.5087500236469107
aF0.28877845229888321
aF0.6444689850084846
aa(lp18
F30.46172017469997
aF28.548275239700192
aF-14.638199808963266
aF17.108673333992868
aF0.25293535837737913
aF0.60921003926091777
aF1.3898244799927781
aF2.4610380619892425
aF5.9970182728473738
aF7.7586419506681601
aa(lp19
F37.386708749711161
aF30.23291784911655
aF21.388103902250442
aF16.284454935556333
aF0.22475638836417261
aF0.56977319900538881
aF0.89974719042524465
aF1.6942153998982514
aF6.5801824627647552
aF5.280807564875416
aaI59
aI90
aI45
a.