(lp1
I8198
a(lp2
(I0
I3
tp3
a(I0
I3
tp4
a(I0
I3
tp5
a(I0
I3
tp6
a(I0
I3
tp7
a(I0
I3
tp8
a(I0
I3
tp9
a(I0
I3
tp10
a(I0
I3
tp11
a(I0
I3
tp12
a(I0
I3
tp13
a(I0
I3
tp14
a(I0
I3
tp15
a(I0
I3
tp16
a(I0
I3
tp17
a(I0
I3
tp18
a(I0
I3
tp19
a(I0
I3
tp20
a(I0
I2
tp21
a(I0
I2
tp22
a(I0
I2
tp23
a(I0
I2
tp24
a(I0
I2
tp25
a(I0
I2
tp26
a(I0
I2
tp27
a(I0
I2
tp28
a(I0
I1
tp29
a(I0
I2
tp30
a(I0
I0
tp31
a(I0
I1
tp32
a(I0
I2
tp33
a(I0
I2
tp34
a(I0
I2
tp35
a(I0
I2
tp36
a(I0
I2
tp37
aa(lp38
F0.20601747734263043
aF0.094038007675914248
aF0.22921764371004105
aF0.85170388531037045
aF0.33243260608240388
aF0.0023715725620025441
aF0.02557173892941389
aF0.00030933555156664738
aF0.79930244287516905
aF0.027633975939852173
aF0.44204050318711546
aF0.29417810953879986
aF0.0040213621703557578
aF0.050524806755698926
aF0.28242335857931167
aF0.0044338095724389959
aF0.0052587043766130215
aF0.065991584333980571
aF0.015879224980362761
aF0.47709853236453581
aF0.0015466777578243551
aF0.57755009714290928
aF0.0027840199640891683
aF0.2806704571204417
aF0.91524140760192374
aF0.08083969080911757
aF0.012785869464709165
aF0.13961344560656808
aF0.002371572562002322
aF0.20284163234656205
aa(lp39
F30.130483325571284
aF18.30729792974649
aF15.308226451373001
aF13.925495901586167
aF13.030419986481148
aF-5.5084857978808213
aF10.221290567660963
aF9.0344530237996246
aF8.5933718107038715
aF7.4711309497194449
aF6.0557983928931209
aF5.4847883241839437
aF5.6032397668629317
aF5.084295367140637
aF4.0808104334900346
aF3.5713859862519688
aF0.0012823482873257797
aF0.03997078365919856
aF0.18393694581511869
aF0.31926687922008179
aF0.75012134777220152
aF0.87666796146639137
aF1.0593906780534219
aF1.2797615875747843
aF3.1441909663768679
aF2.9929254527727682
aF1.9014130022378739
aF2.0948726637002366
aF2.4737131133455299
aF2.3673478882513832
aa(lp40
F31.277827337870246
aF18.428056909663944
aF16.689720354209097
aF14.269752977679168
aF13.243360481611681
aF10.315333527445336
aF9.258013689767834
aF8.6338175716022416
aF7.6576916996010471
aF7.2842118039701651
aF6.0519355387761928
aF5.5534627026962546
aF5.3075716896437122
aF4.3216372112113612
aF4.076469832417283
aF3.3406067069613226
aF2.9983752007815596
aF0.001274732376232402
aF0.038709872652047804
aF0.16379470644419847
aF0.31353490991630834
aF0.63926407492098825
aF0.81762929549668495
aF0.94918572704671778
aF1.2794440260950923
aF2.6730459657322703
aF2.3721830422330217
aF2.0948988573468572
aF1.9569774058600211
aF1.8468893625267697
aaI168
aI268
aI134
a.