(lp1
I6152
a(lp2
(I0
I3
tp3
a(I0
I3
tp4
a(I0
I3
tp5
a(I0
I3
tp6
a(I0
I3
tp7
a(I0
I3
tp8
a(I0
I3
tp9
a(I0
I3
tp10
a(I0
I3
tp11
a(I0
I3
tp12
a(I0
I3
tp13
a(I0
I3
tp14
a(I0
I3
tp15
a(I0
I3
tp16
a(I0
I3
tp17
a(I0
I2
tp18
a(I0
I2
tp19
a(I0
I2
tp20
a(I0
I2
tp21
a(I0
I2
tp22
a(I0
I2
tp23
a(I0
I2
tp24
a(I0
I2
tp25
a(I0
I2
tp26
a(I0
I2
tp27
a(I0
I2
tp28
a(I0
I1
tp29
a(I0
I1
tp30
a(I0
I2
tp31
a(I0
I2
tp32
a(I0
I2
tp33
a(I0
I2
tp34
a(I0
I2
tp35
a(I0
I2
tp36
aa(lp37
F0.11502593045194009
aF0.52844769193319086
aF0.81025134524417819
aF0.014024340690478643
aF0.0091520345350997179
aF0.0072426172579929116
aF0.0021727851773967188
aF0.025052871515147346
aF0.01191739748815257
aF0.32664203833547489
aF0.036542296165328114
aF0.007176775282920822
aF0.059389461515541919
aF0.10093574778639208
aF0.0044114123298699681
aF0.0001975259252189332
aF0.063866715820477871
aF0.064130083720773445
aF0.36934055917009323
aF0.068804863950932216
aF0.18949320425912397
aF0.022452113499777937
aF6.5841975073123449e-05
aF0.41506781085806388
aF0.26718673484486599
aF0.0040163604794245522
aF0.056821624487705891
aF0.0072426172579925507
aF0.8985783548041556
aF0.9746916779881527
aa(lp38
F26.177592812116874
aF20.297098494281983
aF19.202290833376704
aF17.031058407018669
aF14.916203792645859
aF13.118127632570623
aF-3.9526457711963232
aF9.305996529943183
aF8.3924311922768329
aF8.3088147343473313
aF7.6996572788839019
aF6.6761260721182083
aF6.1479903230774937
aF5.7873197384494262
aF4.9091761028093552
aF4.6092631043306502
aF4.4438981770333079
aF4.0106325385799808
aF3.689593646329258
aF3.0017615257644676
aF2.6898844223772529
aF2.3740134179468315
aF1.9662431451804172
aF1.6360798182398424
aF1.3363072585984661
aF0.31755659243056816
aF0.033567647678062071
aF0.24659903232447608
aF0.1027363730194823
aF0.14677729446197296
aa(lp39
F31.198106711348725
aF20.527407588127634
aF19.488586399789192
aF17.035687644868396
aF14.956678604716705
aF13.124101209911677
aF9.7713879746949175
aF8.478745052107838
aF8.3282751408375297
aF7.7278878325617955
aF6.7144978810915958
aF6.326693368488904
aF5.9543713707380048
aF4.9092399935138085
aF4.6938859967157676
aF4.5033736265072424
aF4.0771658488225295
aF3.9074203839094772
aF3.3127498804509807
aF2.7533219036444985
aF2.5013736436203846
aF2.3044308970072214
aF1.6732665618159577
aF1.4337800421420095
aF1.1621738840104607
aF0.028612605559335917
aF0.10045471202400978
aF0.13649111408033388
aF0.29433366542105827
aF0.24606329874457766
aaI178
aI288
aI144
a.