(lp1
I198
a(lp2
(I0
I3
tp3
a(I0
I3
tp4
a(I0
I3
tp5
a(I0
I3
tp6
a(I0
I3
tp7
a(I0
I3
tp8
a(I0
I3
tp9
a(I0
I3
tp10
a(I0
I3
tp11
a(I0
I3
tp12
a(I0
I3
tp13
a(I0
I3
tp14
a(I0
I3
tp15
a(I0
I3
tp16
a(I0
I3
tp17
a(I0
I3
tp18
a(I0
I2
tp19
a(I0
I2
tp20
a(I0
I2
tp21
a(I0
I2
tp22
a(I0
I2
tp23
a(I0
I1
tp24
a(I0
I1
tp25
a(I0
I2
tp26
a(I0
I1
tp27
a(I0
I2
tp28
a(I0
I2
tp29
a(I0
I1
tp30
a(I0
I1
tp31
a(I0
I1
tp32
a(I0
I2
tp33
a(I0
I2
tp34
a(I0
I2
tp35
a(I0
I2
tp36
aa(lp37
F0.32666636921509173
aF0.08976033792606572
aF0.15865914944189841
aF0.028790103320844772
aF7.6599982228309216e-06
aF0.050238098345021021
aF0.0012026197209986655
aF0.57114670249691823
aF1.3083372714725194
aF0.012577717082035145
aF0.35582032245152451
aF0.032317532502499136
aF0.012761557039383753
aF0.00026809993780263497
aF0.29344112692317581
aF0.0007659998222932507
aF0.0017541395930485981
aF9.1919978678078884e-05
aF0.0015664696365871034
aF7.6599982254399457e-06
aF0.17846407484725635
aF7.6599982228170438e-06
aF0.047377089008760143
aF0.00076599982229019759
aF4.5959989337596152e-05
aF0.077753290711638501
aF0.40511863476457111
aF0.94560667312413982
aF0.003944899084803795
aF0.055416257143713454
aa(lp38
F21.07773260885476
aF16.500364019380196
aF15.508127856272845
aF14.867652785043257
aF11.686481125113865
aF10.926650878338673
aF-4.8149265603425135
aF8.8417552371378338
aF7.5999021520008938
aF7.2364822195293534
aF6.1247493738805447
aF4.629987402612362
aF4.2642467365557959
aF3.758802823880286
aF3.3883249249631944
aF3.1561593231786729
aF2.5606437546820247
aF2.0763730916682626
aF1.4130794462847993
aF1.2049571305615254
aF0.59483789079747318
aF0.469781703989953
aF0.28586422378526088
aF0.25553750316739837
aF0.22883252012789521
aF0.00061378916175674635
aF0.10477177924997574
aF0.048094183493564528
aF0.046081531467232935
aF0.046944254427664561
aa(lp39
F22.06786743962423
aF17.603212814455038
aF15.683961215990037
aF15.206183416758735
aF11.75866713401189
aF11.682463867575775
aF10.703859086421227
aF7.9870852616653849
aF7.5959189400627105
aF6.2579343503097267
aF4.928321473000965
aF4.6066178988596391
aF3.9184561483032314
aF3.6148353596341316
aF3.3680932401617456
aF2.6763685599824929
aF2.2948517528715304
aF1.6557740076414962
aF1.4105058223823284
aF1.0898546976423229
aF0.5797564914362523
aF0.46870703593657159
aF0.25967055451372284
aF0.22883901410999372
aF0.18615461031359687
aF0.00061371002733645109
aF0.10272419541508004
aF0.044039965322310574
aF0.048080147148994765
aF0.046915415226128687
aaI166
aI264
aI132
a.