(lp1
I1276
a(lp2
(I0
I3
tp3
a(I0
I3
tp4
a(I0
I3
tp5
a(I0
I3
tp6
a(I0
I3
tp7
a(I0
I3
tp8
a(I0
I3
tp9
a(I0
I3
tp10
a(I0
I3
tp11
a(I0
I3
tp12
a(I0
I3
tp13
a(I0
I3
tp14
a(I0
I3
tp15
a(I0
I3
tp16
a(I0
I3
tp17
a(I0
I3
tp18
a(I0
I3
tp19
a(I0
I3
tp20
a(I0
I3
tp21
a(I0
I3
tp22
a(I0
I2
tp23
a(I0
I2
tp24
a(I0
I1
tp25
a(I0
I1
tp26
a(I0
I2
tp27
a(I0
I1
tp28
a(I0
I2
tp29
a(I0
I2
tp30
a(I0
I1
tp31
a(I0
I2
tp32
a(I0
I2
tp33
a(I0
I0
tp34
a(I0
I1
tp35
a(I0
I2
tp36
a(I0
I1
tp37
a(I0
I2
tp38
a(I0
I1
tp39
a(I0
I1
tp40
a(I0
I2
tp41
a(I0
I1
tp42
a(I0
I0
tp43
a(I0
I1
tp44
a(I0
I2
tp45
a(I0
I1
tp46
a(I0
I1
tp47
a(I0
I0
tp48
a(I0
I1
tp49
a(I0
I0
tp50
a(I0
I1
tp51
a(I0
I2
tp52
a(I0
I2
tp53
a(I0
I1
tp54
a(I0
I2
tp55
a(I0
I2
tp56
a(I0
I2
tp57
a(I0
I1
tp58
a(I0
I2
tp59
a(I0
I1
tp60
aa(lp61
F0.14541996869700907
aF0.50353549022927557
aF0.0047649846299151147
aF0.31309016605216355
aF2.7267437081590629e-06
aF0.000534441766788539
aF1.363371854032347e-05
aF0.00076348823826855039
aF0.21575223253204245
aF0.66614280620440125
aF0.00046354643037771481
aF0.59722367729609005
aF0.0025249646737059983
aF0.011885875823634429
aF0.0081284229938640706
aF0.00018541857215170765
aF0.01386208332608363
aF0.0010743370209938172
aF5.4534874166733971e-05
aF0.26380086509850714
aF0.17675843413427406
aF0.068273572335416866
aF0.00068168592702653411
aF1.0906974831748073e-05
aF0.001338831160682119
aF0.00080438939389141295
aF0.417707141901067
aF0.54799845481957876
aF0.0029121622802578406
aF0.0010088951719993133
aF0.077174345484601115
aF0.0047445340521049071
aF0.0019877961632088995
aF7.0895336411025411e-05
aF1.0906974831748073e-05
aF0.33524768542423272
aF0.00013906392911391952
aF0.59862386019020686
aF0.23962214695280415
aF0.00056170920386959533
aF0.0043627899329710118
aF8.1802311242995529e-05
aF5.45348741614049e-05
aF0.00024813367743808934
aF0.38240603616999863
aF0.048047950880541812
aF2.7267437081590629e-06
aF0.0009679940163764833
aF0.012815695428098841
aF4.3627899328768649e-05
aa(lp62
F16.469946617406723
aF14.783409299233412
aF13.430438223556374
aF12.444761402805137
aF11.430018528182059
aF10.812089748963055
aF9.2178974594554504
aF8.2409815746659145
aF-4.1893091370817528
aF7.6314108266699625
aF6.0494960359753858
aF5.5761185024183826
aF5.2450456714342328
aF4.9382324050772466
aF4.0642393434626642
aF3.9548522546065565
aF3.7508382476253561
aF3.386947966865157
aF3.2628859240257606
aF3.0080025446430816
aF2.8568463493366161
aF2.5538401477699892
aF2.3027995811580362
aF2.2358694433239483
aF2.008348836479882
aF1.633232094859894
aF1.5180425420067174
aF1.319165673001468
aF1.0501113974270118
aF0.96112840315315118
aF0.90371086696375036
aF0.70070536000262773
aF0.52660004475182398
aF0.42571164355491514
aF0.36488557449024506
aF0.28304629271429937
aF0.22681355240771792
aF0.19192363990335795
aF0.16805100674473436
aF0.15860107839260296
aF0.14245740701012929
aF0.12680654207569694
aF0.00045624199281907616
aF0.0017196484811477228
aF0.022801724247119973
aF0.028164700609392183
aF0.034819699793474969
aF0.067736039189205136
aF0.060136796072812186
aF0.056549696904786513
aa(lp63
F16.788702501203893
aF14.88355929335569
aF13.537338611630982
aF12.579078384497796
aF11.814444799756453
aF10.877285695922405
aF10.322633532018143
aF9.1383625036323846
aF7.6316242938509111
aF6.2582599518933382
aF5.770634259589599
aF5.4226793039283896
aF4.9440188826181641
aF4.1486839849864587
aF4.0216403245434966
aF3.7519212187919524
aF3.5105977929937731
aF3.2895660193607594
aF3.0238879094052873
aF2.9037406725751755
aF2.5566032328969914
aF2.4520804701618033
aF2.2494374697431025
aF2.0621402277390932
aF1.7652208282705975
aF1.6228753930666915
aF1.5173062503333046
aF1.2172703769514714
aF0.99486204446023752
aF0.93013211040851373
aF0.90269971749724243
aF0.63921672884690384
aF0.50464444415646892
aF0.42182453898289429
aF0.362249349833279
aF0.2830462175864048
aF0.22108730072538785
aF0.19149451867110312
aF0.16742585600138785
aF0.15821271002110757
aF0.13611852280159209
aF0.1264750105113702
aF0.00045515286149254056
aF0.0017196256246096425
aF0.022713541948978264
aF0.028023646019305775
aF0.034794001759827463
aF0.067492406121067869
aF0.059695354690176818
aF0.056538875655417979
aaI299
aI490
aI245
a.