(lp1
I7036
a(lp2
(I0
I3
tp3
a(I0
I3
tp4
a(I0
I3
tp5
a(I0
I3
tp6
a(I0
I3
tp7
a(I0
I3
tp8
a(I0
I3
tp9
a(I0
I3
tp10
a(I0
I3
tp11
a(I0
I3
tp12
a(I0
I3
tp13
a(I0
I3
tp14
a(I0
I3
tp15
a(I0
I3
tp16
a(I0
I3
tp17
a(I0
I3
tp18
a(I0
I2
tp19
a(I0
I2
tp20
a(I0
I2
tp21
a(I0
I2
tp22
a(I0
I1
tp23
a(I0
I0
tp24
a(I1
I2
tp25
a(I0
I1
tp26
a(I0
I0
tp27
a(I0
I2
tp28
a(I0
I2
tp29
a(I0
I0
tp30
a(I0
I2
tp31
a(I0
I2
tp32
a(I0
I2
tp33
a(I0
I2
tp34
a(I0
I2
tp35
a(I0
I2
tp36
a(I0
I2
tp37
a(I0
I2
tp38
a(I0
I2
tp39
aa(lp40
F6.6144586231248192e-05
aF1.3228917246532745e-05
aF0.073082418387757808
aF0.00067467477956518411
aF0.013030483487680451
aF0.010358242203912349
aF0.0045154704200963056
aF0.00078050611753618937
aF0.21900325513406305
aF0.010358242203912738
aF0.0016933014075361527
aF0.0057148922504344484
aF0.0017197592420285235
aF0.83736841350019819
aF0.00017197592420314933
aF0.0099481457692749409
aF0.009868772265796466
aF0.046512873038260572
aF1.322891724638009e-05
aF0.72215336356242432
aF0.00011906025521738568
aF0.74662686046821969
aF6.6144586231881367e-05
aF0.3634600917051018
aF0.0040921450682126284
aF0.10847712142028398
aF0.098013047878400469
aF1.1324746897932729
aF0.20566997642940898
aF0.21002229020346685
aa(lp41
F26.686212385087259
aF19.878287153351739
aF16.065511812221818
aF-5.1297474615182113
aF11.754005043207641
aF9.6585242681949097
aF8.6966197018204632
aF8.9299173491023307
aF8.0841173804324935
aF6.7219480618241629
aF5.8922019460858488
aF5.7355680075719722
aF5.0416109634510358
aF3.9753169440583362
aF3.1790744978448138
aF2.6528724870577962
aF2.1310543052982962
aF1.6936575359774471
aF1.5387856854030915
aF1.0764276144553724
aF0.78331323169822675
aF0.68816877133468035
aF0.3937200288833238
aF0.33422886927376566
aF0.008751565797113366
aF0.054877812593673407
aF0.059626128283873744
aF0.11574809623049501
aF0.18531850030545743
aF0.14819413128479528
aa(lp42
F26.736196848627262
aF21.295307029039289
aF19.634812760267874
aF11.77243155636954
aF10.173882351908599
aF8.7344999509760086
aF8.9299219148309987
aF8.0901057055534551
aF6.7221652511247827
aF5.8929487765716893
aF5.7896805138074425
aF5.0749098316774024
aF4.0725608275291743
aF3.7760134385262427
aF3.1770722944785654
aF2.1684399491700685
aF1.90161154712318
aF1.5903591592121042
aF1.1357747226371067
aF1.0572709188461153
aF0.77169408694911812
aF0.67444443036248169
aF0.39364735824198499
aF0.33138870616651073
aF0.008751564274571624
aF0.054772850132472788
aF0.059413182244185896
aF0.11495079949788327
aF0.18530789223737523
aF0.14818821349945771
aaI161
aI254
aI127
a.