(lp1
I9559
a(lp2
(I0
I3
tp3
a(I0
I3
tp4
a(I0
I3
tp5
a(I0
I3
tp6
a(I0
I3
tp7
a(I0
I3
tp8
a(I0
I3
tp9
a(I0
I3
tp10
a(I0
I3
tp11
a(I0
I3
tp12
a(I0
I3
tp13
a(I0
I3
tp14
a(I0
I3
tp15
a(I0
I3
tp16
a(I0
I3
tp17
a(I0
I3
tp18
a(I0
I3
tp19
a(I0
I3
tp20
a(I0
I3
tp21
a(I0
I3
tp22
a(I0
I2
tp23
a(I0
I1
tp24
a(I0
I2
tp25
a(I0
I2
tp26
a(I0
I0
tp27
a(I0
I2
tp28
a(I0
I2
tp29
a(I0
I2
tp30
a(I0
I1
tp31
a(I0
I1
tp32
a(I0
I2
tp33
a(I0
I2
tp34
a(I0
I2
tp35
a(I0
I2
tp36
a(I0
I2
tp37
aa(lp38
F0.0095478573273810596
aF0.1022090300783578
aF0.11324384879278981
aF0.20809633306152264
aF0.32184887917093885
aF0.013147869106560961
aF1.3860827961085707
aF0.013617435860366456
aF0.010643513086260548
aF0.78265038690552657
aF0.0092348128248465056
aF0.026139215961846318
aF0.0015652225126894237
aF0.019095714654761342
aF0.0054782787943956635
aF0.0025043560202959725
aF0.44467971585393384
aF0.00062608900507532539
aF0.012208735598944864
aF0.3353489233428455
aF0.032400106012588248
aF0.52254953586002717
aF0.00097826407042989061
aF0.5690757750495945
aF0.11692212169758642
aF0.0042261007842547826
aF0.0093913350761134495
aF0.48557115399783113
aF0.24887037951698332
aF0.0079826348146947446
aa(lp39
F18.92963222403953
aF14.039963148810202
aF12.854097973414476
aF-5.0532175190311852
aF11.577400832944647
aF10.382383644644063
aF9.2938807678769209
aF8.9926927142580393
aF7.3999196642206728
aF6.6484742625671602
aF5.9655791262331785
aF5.3887343803473096
aF4.5882210082057471
aF4.3979749225247113
aF3.9698285480113529
aF3.3059333260120911
aF2.8353226596791452
aF2.4503988008768123
aF0.028607587306158404
aF2.0930879859763438
aF1.9353436148381864
aF0.21429818468954567
aF0.38011665583398513
aF0.55968524853292423
aF1.6493274315727482
aF0.92119033064585143
aF0.95236022939482912
aF1.1674692621693763
aF1.2772205549198403
aF1.3723842092866514
aa(lp40
F21.342775819117989
aF15.141652642791321
aF13.986046312936773
aF12.704221716668687
aF10.467000421703963
aF9.8989598974762103
aF9.0077207613651211
aF7.403724673079016
aF6.796467175979938
aF5.9929714772554465
aF5.553732959369146
aF5.2774513575356199
aF4.4935268314685466
aF4.0438353143022336
aF3.7729939095221661
aF3.2766279590561433
aF2.8352414067668827
aF0.021294191466662431
aF2.2912971645316147
aF0.18794171765156556
aF2.0785406523702217
aF1.906617015602357
aF0.3798910675362544
aF1.6340137302934332
aF0.52964304189062217
aF0.76522953034850372
aF1.3723779744672393
aF1.170425283311469
aF0.92576054746352832
aF0.96242602960199997
aaI182
aI296
aI148
a.