(lp1
I6856
a(lp2
(I0
I3
tp3
a(I0
I3
tp4
a(I0
I3
tp5
a(I0
I3
tp6
a(I0
I3
tp7
a(I0
I3
tp8
a(I0
I3
tp9
a(I0
I3
tp10
a(I0
I3
tp11
a(I0
I3
tp12
a(I0
I3
tp13
a(I0
I3
tp14
a(I0
I3
tp15
a(I0
I3
tp16
a(I0
I3
tp17
a(I0
I3
tp18
a(I0
I3
tp19
a(I0
I3
tp20
a(I0
I3
tp21
a(I0
I3
tp22
a(I0
I2
tp23
a(I0
I2
tp24
a(I0
I2
tp25
a(I0
I2
tp26
a(I0
I2
tp27
a(I0
I2
tp28
a(I0
I2
tp29
a(I0
I2
tp30
a(I0
I1
tp31
a(I0
I1
tp32
a(I0
I1
tp33
a(I0
I2
tp34
a(I0
I2
tp35
a(I0
I2
tp36
aa(lp37
F0.37432542716468409
aF0.22329325481302131
aF0.10936812480637642
aF0.0031620036083478964
aF0.0088350100821479004
aF0.39841245465179975
aF0.07709708798000503
aF0.15605417808256822
aF0.010416011886321908
aF0.17223619654881794
aF0.0316200360834753
aF0.020832023772643066
aF0.0089280101882766028
aF0.54451562137868481
aF0.0076260087024856427
aF0.020832023772644703
aF0.0041850047757572284
aF0.036735041920509692
aF0.22022425131079831
aF0.51968459304254244
aF0.0041850047757556741
aF0.0077190088086123154
aF0.0092070105066597296
aF0.36158441262516217
aF0.073098083416505755
aF0.4122694704648534
aF0.44723751036893244
aF0.094860108250428787
aF0.48369355197105735
aF0.52014959357318646
aa(lp38
F15.31427825773444
aF12.76510729205374
aF12.427398707895701
aF12.193199875698527
aF10.508016246572847
aF9.8229246813543512
aF-2.7968274244648743
aF8.9451399026888812
aF7.4200530647232119
aF6.7370027969996986
aF6.3108660605603975
aF5.6497732253304838
aF5.1887009286910448
aF0.021072438609628097
aF0.17686029766242761
aF4.5549471704337359
aF0.91340165847173338
aF4.1464507189454922
aF3.9767777094870924
aF3.8711268631072819
aF1.2409207563328459
aF3.0856486169528607
aF2.8518808079805864
aF2.7463438971963656
aF1.5600422495278297
aF1.7026167238958438
aF1.9433512769570784
aF2.3208395487448419
aF2.1021014115374062
aF2.2109629877146988
aa(lp39
F15.699672990275669
aF14.132304567266479
aF12.558065994380586
aF12.221429853892628
aF10.525705056531748
aF9.9777830941928318
aF9.1101890949053939
aF7.435413476278419
aF7.2360251439618892
aF6.3329089501336897
aF5.7614422581063769
aF0.02049843671331085
aF0.1048208203795456
aF5.1988942453961933
aF4.5556252449100478
aF4.5026647080268667
aF4.0377646551868596
aF3.8756241268806972
aF3.6400075557052372
aF0.89165054417618417
aF1.112646421854145
aF1.2756253319706454
aF2.980152149242445
aF2.8141682062341449
aF1.6480983409524075
aF1.8087322377846029
aF2.3345564623122934
aF2.011130339625864
aF2.2192844445908868
aF2.1241826191959836
aaI179
aI290
aI145
a.