(lp1
I6186
a(lp2
(I0
I3
tp3
a(I0
I3
tp4
a(I0
I3
tp5
a(I0
I3
tp6
a(I0
I3
tp7
a(I0
I3
tp8
a(I0
I3
tp9
a(I0
I3
tp10
a(I0
I3
tp11
a(I0
I3
tp12
a(I0
I3
tp13
a(I0
I3
tp14
a(I0
I3
tp15
a(I0
I3
tp16
a(I0
I3
tp17
a(I0
I3
tp18
a(I0
I3
tp19
a(I0
I3
tp20
a(I0
I3
tp21
a(I0
I2
tp22
a(I0
I2
tp23
a(I0
I2
tp24
a(I0
I2
tp25
a(I0
I2
tp26
a(I0
I2
tp27
a(I0
I2
tp28
a(I0
I1
tp29
a(I0
I2
tp30
a(I0
I2
tp31
a(I0
I1
tp32
a(I0
I2
tp33
a(I0
I2
tp34
a(I0
I2
tp35
a(I0
I2
tp36
aa(lp37
F0.14376404141210042
aF0.0065636734409619812
aF0.62301016787751085
aF0.0055350380509606723
aF0.17359446772214038
aF0.10433301812871321
aF0.0019593055047636421
aF0.084054206154400235
aF0.0035757325461975853
aF0.0091107705971495978
aF0.0023511666057174363
aF0.0064167255281041202
aF0.00019593055047628649
aF0.0089638226842979358
aF0.12627723978207644
aF0.00019593055048071998
aF0.05143176950007107
aF4.8982637622430047e-05
aF0.033014297755283376
aF0.014498860735257786
aF0.43442701304392273
aF0.87497685579023643
aF0.093703785765366254
aF0.088805522003455373
aF0.67669513870806286
aF0.0044574200233391537
aF0.13372260070018016
aF0.00093067011476321388
aF0.0049472463995297034
aF0.18197049875501214
aa(lp38
F15.560061228950408
aF14.727595983500857
aF14.102073040210154
aF11.799424571930174
aF11.209460329623752
aF9.7257878376687454
aF8.9851229501638077
aF-2.1515261989328658
aF8.064132408919086
aF6.9545937505006341
aF6.7360431210903773
aF6.2571278333420119
aF6.0440223045598476
aF4.8791553319557375
aF4.7377503643335812
aF4.3231976696069285
aF3.504408845088903
aF2.8759131589003073
aF2.894069352136615
aF1.9502641239320548
aF1.7070133160845966
aF1.345434308644313
aF1.1598348340715581
aF0.87339643735532912
aF0.81392607405774697
aF0.477688095837144
aF0.094296739925479475
aF0.14710987250400354
aF0.25477449385674666
aF0.2351458871678663
aa(lp39
F15.719551611654392
aF14.729919081078172
aF14.131639403698575
aF12.396773119813437
aF11.796974918304317
aF10.292177291312852
aF9.1464611890794849
aF8.6777753600690346
aF7.8164145500561322
aF6.8809103836684056
aF6.3987482280156343
aF6.1082110106774552
aF4.884679971642182
aF4.7414506524991173
aF4.3288903512386954
aF4.0718988365411466
aF3.0621882460047525
aF2.8920411881424055
aF2.0986055583031966
aF1.7548769782538882
aF1.4266056524043387
aF1.2459457663411337
aF0.87433626461421798
aF0.82378622583508443
aF0.68288049793310179
aF0.43411076889050404
aF0.072241557482585969
aF0.13807144222005663
aF0.23287664412216538
aF0.25434240301378425
aaI174
aI280
aI140
a.