(lp1
I4039
a(lp2
(I0
I3
tp3
a(I0
I3
tp4
a(I0
I3
tp5
a(I0
I3
tp6
a(I0
I3
tp7
a(I0
I3
tp8
a(I0
I3
tp9
a(I0
I3
tp10
a(I0
I3
tp11
a(I0
I3
tp12
a(I0
I3
tp13
a(I0
I3
tp14
a(I0
I3
tp15
a(I0
I3
tp16
a(I0
I3
tp17
a(I0
I3
tp18
a(I0
I2
tp19
a(I0
I2
tp20
a(I0
I2
tp21
a(I0
I2
tp22
a(I0
I2
tp23
a(I0
I2
tp24
a(I0
I2
tp25
a(I0
I2
tp26
a(I0
I2
tp27
a(I0
I1
tp28
a(I0
I2
tp29
a(I0
I0
tp30
a(I0
I1
tp31
a(I0
I2
tp32
a(I0
I2
tp33
a(I0
I2
tp34
a(I0
I2
tp35
a(I0
I2
tp36
a(I0
I2
tp37
aa(lp38
F0.057834932337590794
aF0.012158480093702906
aF0.013519854312682655
aF0.025725278344967517
aF0.74135041413013525
aF0.0066190953405849129
aF0.0090132362084567319
aF0.080051151273276666
aF0.00042249544727157584
aF0.00046943938585664036
aF0.82205095655384808
aF0.36888742540393116
aF0.011407377076327663
aF0.12045814641092445
aF0.13980491710056064
aF4.6943938587062917e-05
aF0.0059618802003842397
aF0.844490159197816
aF0.2432634897511341
aF0.0077457498666431146
aF0.00018777575434436589
aF0.00056332726302255054
aF0.43822166669757689
aF0.27100735745528759
aF0.33395917909871975
aF0.010844049813298007
aF0.31968822176866829
aF0.91235935840810845
aF0.30011846737074865
aF0.0075990500585620957
aa(lp39
F20.225647024700919
aF17.387338047759179
aF16.156759244786663
aF14.813922539568567
aF-4.6867262136979591
aF13.163475289249218
aF12.712651101785362
aF10.902836643633009
aF10.095077176095979
aF9.1244296800614499
aF8.6130410141301432
aF8.1986743032013898
aF6.869844066270657
aF6.1239978225443883
aF5.1195596629050542
aF4.2751572214185991
aF3.7160053255922545
aF3.3959476102241446
aF2.6787125289388052
aF2.0462006125784753
aF1.869170074056596
aF1.2582839840052882
aF0.75153401186542856
aF0.57014557198099924
aF0.47964934971770951
aF0.4069759906868663
aF0.0021758682566929101
aF0.22960184676775869
aF0.10957169552157148
aF0.12820160316356438
aa(lp40
F21.751798586202362
aF18.067432814699298
aF16.475895834503199
aF15.054059996489817
aF13.991230510273462
aF12.906699804176435
aF11.756145569873368
aF10.398215993449055
aF9.5285277679775078
aF8.9885899385531509
aF8.2739978069002547
aF7.4385414368202776
aF6.868161105389996
aF5.3462222795121042
aF4.6317711755574091
aF3.811513487378734
aF3.3988877300655425
aF2.7041700403326772
aF2.1583579348630204
aF1.9982032908937863
aF1.8613230784146164
aF1.1874036549721123
aF0.72558388629357706
aF0.0021635967495901316
aF0.50805973623965961
aF0.45616706522995737
aF0.32444914729470475
aF0.22709249098789383
aF0.095246078769012504
aF0.12514071907349764
aaI171
aI274
aI137
a.