(lp1
I1507
a(lp2
(I0
I3
tp3
a(I0
I3
tp4
a(I0
I3
tp5
a(I0
I3
tp6
a(I0
I3
tp7
a(I0
I3
tp8
a(I0
I3
tp9
a(I0
I3
tp10
a(I0
I3
tp11
a(I0
I3
tp12
a(I0
I2
tp13
a(I0
I2
tp14
a(I0
I2
tp15
a(I0
I2
tp16
a(I0
I1
tp17
a(I0
I1
tp18
a(I0
I1
tp19
a(I0
I2
tp20
a(I0
I1
tp21
a(I0
I1
tp22
a(I0
I2
tp23
a(I0
I2
tp24
a(I0
I1
tp25
a(I0
I1
tp26
a(I0
I2
tp27
a(I0
I2
tp28
a(I0
I1
tp29
a(I0
I1
tp30
a(I0
I2
tp31
a(I0
I1
tp32
a(I0
I0
tp33
a(I0
I0
tp34
a(I0
I1
tp35
a(I0
I0
tp36
a(I0
I2
tp37
a(I0
I1
tp38
a(I0
I1
tp39
a(I0
I2
tp40
a(I0
I1
tp41
a(I0
I1
tp42
a(I0
I1
tp43
a(I0
I2
tp44
a(I0
I2
tp45
a(I0
I1
tp46
a(I0
I1
tp47
a(I0
I1
tp48
a(I0
I0
tp49
a(I0
I1
tp50
a(I0
I2
tp51
a(I0
I1
tp52
a(I0
I1
tp53
a(I0
I0
tp54
a(I0
I2
tp55
a(I0
I0
tp56
a(I0
I1
tp57
a(I1
I2
tp58
a(I0
I1
tp59
a(I0
I2
tp60
a(I0
I1
tp61
a(I0
I2
tp62
aa(lp63
F0.0012351109538051297
aF0.0014409627794394926
aF0.029919991045301408
aF0.00078909866493237502
aF0.04320744048468228
aF0.0034651723981813376
aF3.430863760200964e-05
aF0.02385879840163696
aF0.075221687950505156
aF0.00020585182563359616
aF0.013732032201683064
aF0.001991330507699729
aF7.7194434616956187e-05
aF0.0023158330383851178
aF0.023998892005188788
aF0.00036024069485988616
aF0.00066044127390903901
aF0.00087487025894539272
aF5.1462956406567173e-05
aF0.00034308637605207082
aF1.4734584199767775
aF0.014260957031437829
aF0.00025731478204271685
aF1.4355098503500927
aF0.03725632138666235
aF0.00046316660767856122
aF0.00033022063695531401
aF0.00099495049056486096
aF0.0165710719635546
aF0.32910274717958021
aF0.00080625298373526721
aF1.8729449798228164
aF0.00099495049056556525
aF0.030062943701997198
aF0.013886421070909982
aF0.028973644458015535
aF0.10277045180296007
aF0.00034308637605653947
aF0.00018869750683059294
aF0.13449986610032205
aF3.430863760733871e-05
aF0.0013294597072209986
aF0.014263816084571241
aF8.5771594014259767e-05
aF0.00048032092648053748
aF0.014379607736491051
aF0.00013723455042224941
aF0.0016296602862713172
aF0.0015010028952493482
aF0.89854321889337796
aa(lp64
F40.842015262818222
aF27.057494292575161
aF-12.067638967566781
aF12.607129463806148
aF9.7382814397424724
aF8.5922128093839216
aF8.0036074796763383
aF7.1969943727871328
aF6.4314995476823675
aF5.5239894762346715
aF5.1402516726695344
aF4.8472225597393273
aF4.2443637738204973
aF3.4227915040433432
aF2.87814538416329
aF2.7945507650708001
aF2.5878641076865261
aF2.3783009145405085
aF1.6779122577967192
aF1.5249554868274344
aF1.4135658711422003
aF1.3199957635701569
aF1.1313335901206463
aF0.97431267473106198
aF0.90905932700122516
aF0.80944102053492795
aF0.77313987921192739
aF0.72304676194962325
aF0.65603093777564081
aF0.60724416038671458
aF0.56792908391792185
aF0.0081131728983497558
aF0.0015884097606664916
aF0.036057014284018897
aF0.47056799212094619
aF0.09430685461467482
aF0.10471072887999429
aF0.13290898557428413
aF0.14529592857108822
aF0.42942507884382286
aF0.39663130377946121
aF0.386450517111668
aF0.19469300896589947
aF0.20919266959626739
aF0.23801064477734563
aF0.34754317114339689
aF0.32451304482163801
aF0.27234893920245362
aF0.29245494070906952
aF0.28746389842127146
aa(lp65
F51.391180616491013
aF28.277191560293154
aF16.538320985463429
aF11.633703027903531
aF8.6118180281142713
aF8.0590804495262365
aF7.2008599556834625
aF6.5515834267559736
aF6.147470072470262
aF5.5231485939952734
aF5.0047559450654031
aF4.8136750994145432
aF3.9397406167693032
aF3.3643631605780269
aF2.877582501775847
aF2.661753098078572
aF2.5761630071845367
aF2.0353182800573357
aF1.676770252598403
aF1.4938169465987807
aF1.403779706191842
aF1.3185698575920697
aF1.1249207108356474
aF0.96420284568355996
aF0.88949863502344395
aF0.79621743000109546
aF0.7708107502349687
aF0.72076141779992953
aF0.64409877085693212
aF0.60637330137953216
aF0.53739989348805894
aF0.0078739248913692102
aF0.0015645171885536515
aF0.035793622200539943
aF0.46870396026673466
aF0.092151715631707015
aF0.10468440120284478
aF0.13290897067991719
aF0.14069480816847221
aF0.42729684684500135
aF0.39663096924780772
aF0.38469995556475134
aF0.1946006077035928
aF0.20632971853728396
aF0.33581774887141014
aF0.32224860251179671
aF0.23572656865319419
aF0.28797266336574823
aF0.26838489491358808
aF0.27244673391640767
aaI294
aI480
aI240
a.