(lp1
I9237
a(lp2
(I0
I3
tp3
a(I0
I3
tp4
a(I0
I3
tp5
a(I0
I3
tp6
a(I0
I3
tp7
a(I0
I3
tp8
a(I0
I3
tp9
a(I0
I3
tp10
a(I0
I3
tp11
a(I0
I3
tp12
a(I0
I3
tp13
a(I0
I3
tp14
a(I0
I3
tp15
a(I0
I3
tp16
a(I0
I3
tp17
a(I0
I3
tp18
a(I0
I2
tp19
a(I0
I2
tp20
a(I0
I1
tp21
a(I0
I2
tp22
a(I0
I2
tp23
a(I0
I2
tp24
a(I0
I1
tp25
a(I0
I1
tp26
a(I0
I1
tp27
a(I0
I0
tp28
a(I0
I2
tp29
a(I0
I2
tp30
a(I0
I2
tp31
a(I0
I2
tp32
a(I0
I1
tp33
a(I0
I0
tp34
a(I0
I2
tp35
a(I0
I1
tp36
a(I0
I2
tp37
a(I0
I2
tp38
aa(lp39
F8.6931068978501891e-05
aF0.23625375496365342
aF0.0085944735695804297
aF0.00034772427591373001
aF0.23536097783858254
aF1.2382492423647093
aF0.32842855060291032
aF0.027661911949293516
aF5.3496042448253345e-05
aF0.0011601954205971987
aF0.1268717157957191
aF0.0012705310081464471
aF3.3435026527417477e-06
aF0.0028531222639077425
aF0.00019652365593847421
aF0.0015112631991639758
aF0.22433231050417524
aF0.33109146471588963
aF0.067856370863801418
aF0.99704261451269505
aF0.80318450414765374
aF6.6870053059969736e-05
aF0.0017620258981398407
aF1.6717513264596917e-05
aF0.3355138042249482
aF0.00012036609550852839
aF1.3469123975038872
aF1.003050795905791e-05
aF0.24989649960145754
aF0.017687129034459681
aa(lp40
F-12.174325900845812
aF15.240544001138769
aF14.05469328063157
aF12.779769386831958
aF10.563329494034283
aF10.209822622802003
aF8.8023795060767132
aF7.829082145720224
aF6.6177645080226908
aF5.683574342365743
aF4.8151202587041775
aF3.8096696818598308
aF3.5278638057137131
aF3.4310929048112748
aF2.7757029326265985
aF1.7008497530450672
aF0.74976969771727364
aF0.57203983209056875
aF0.46577648957717088
aF0.39542456367676881
aF0.28973987653119132
aF0.23544529345755583
aF0.18639225715592206
aF0.1351918178489542
aF0.00094664997678626627
aF0.022878978630308595
aF0.043348960717662061
aF0.055242473543562813
aF0.097660086304658514
aF0.081156138602933123
aa(lp41
F17.260296069475721
aF14.960985715660868
aF13.319899562705293
aF11.235232257805947
aF10.529619516029701
aF9.4265974937669288
aF8.126285715478291
aF7.0141786518406395
aF5.6915365766720214
aF5.120443792344207
aF4.8145081714657127
aF3.5832436514061787
aF3.4560074303911739
aF3.0746247635041897
aF2.6442860901247052
aF1.6879200527158271
aF0.73860666869424652
aF0.56140834217145996
aF0.46332147765067749
aF0.39540386847858094
aF0.2871034999160148
aF0.23514870845387664
aF0.18537012239680672
aF0.13515549239805577
aF0.00094555800959494679
aF0.02276751618775201
aF0.043182175910472832
aF0.055231443199656852
aF0.097652973478111471
aF0.08115548408889954
aaI175
aI282
aI141
a.