(lp1
I2262
a(lp2
(I0
I3
tp3
a(I0
I3
tp4
a(I0
I3
tp5
a(I0
I3
tp6
a(I0
I3
tp7
a(I0
I3
tp8
a(I0
I3
tp9
a(I0
I3
tp10
a(I0
I3
tp11
a(I0
I3
tp12
a(I0
I3
tp13
a(I0
I3
tp14
a(I0
I3
tp15
a(I0
I3
tp16
a(I0
I3
tp17
a(I0
I3
tp18
a(I0
I2
tp19
a(I0
I2
tp20
a(I0
I2
tp21
a(I0
I2
tp22
a(I0
I1
tp23
a(I0
I1
tp24
a(I0
I2
tp25
a(I0
I2
tp26
a(I0
I1
tp27
a(I0
I2
tp28
a(I0
I2
tp29
a(I0
I2
tp30
a(I0
I2
tp31
a(I0
I2
tp32
a(I0
I1
tp33
a(I0
I1
tp34
a(I0
I2
tp35
a(I0
I2
tp36
a(I0
I1
tp37
a(I0
I2
tp38
a(I0
I2
tp39
a(I0
I2
tp40
a(I0
I1
tp41
a(I0
I1
tp42
a(I0
I2
tp43
a(I0
I1
tp44
a(I0
I0
tp45
a(I0
I1
tp46
a(I0
I1
tp47
a(I0
I1
tp48
a(I0
I2
tp49
a(I0
I2
tp50
a(I0
I0
tp51
a(I0
I1
tp52
a(I0
I2
tp53
a(I0
I0
tp54
a(I0
I0
tp55
a(I0
I0
tp56
a(I0
I1
tp57
a(I0
I2
tp58
a(I0
I2
tp59
a(I0
I2
tp60
a(I0
I2
tp61
aa(lp62
F0.74482180497245698
aF0.17137916263185937
aF0.0040905848317991378
aF2.7847048300388977e-05
aF0.017980582601072749
aF0.00031804260426393505
aF5.9541386166881653e-05
aF0.0022013824497975065
aF5.9541386164596588e-05
aF0.001620502793153733
aF7.3281706125527535e-07
aF2.3816554453048866e-06
aF0.64261614745245765
aF7.3281706125527535e-07
aF6.4121492795443658e-05
aF7.3281706051547455e-07
aF0.59902603909627494
aF3.8472895673713481e-06
aF1.6671588127126213e-05
aF0.00014289932679734108
aF0.00029508100303399232
aF0.0012144244326862449
aF5.2579624091775301e-05
aF3.3343176253749018e-05
aF0.00014106728414819969
aF0.29061661432667285
aF0.0021925886450588905
aF1.8320426531381884e-07
aF0.0013147348746476856
aF1.8320426513618315e-06
aF4.3969023644230276e-06
aF1.1334188185320406
aF0.035550238035464699
aF3.6640853025016185e-06
aF1.8320426331541739e-07
aF7.1449663400259477e-06
aF0.00031694337867299582
aF0.00029471459450913784
aF0.54485956072783459
aF0.64361935161665995
aF3.3526380519225372e-05
aF0.37450304430392833
aF0.019141364824927454
aF2.7847048300388977e-05
aF3.6640853007252616e-06
aF5.4961279438714428e-07
aF3.4808810376318888e-06
aF7.3281706058914153e-07
aF0.00013996805855831518
aF6.4121492792112988e-06
aa(lp63
F28.991479894728762
aF26.368397124991127
aF17.237826138542605
aF15.872277833569148
aF12.82855525626012
aF10.267442111032212
aF-5.008436127552037
aF7.919871661874839
aF7.3225186905944879
aF6.8887315969744209
aF5.3685488122756526
aF4.8233484357265333
aF4.2042242071143505
aF3.7588228627860341
aF3.2543978447139814
aF2.9135580504299865
aF2.5218541342455532
aF2.15694590119567
aF1.8926672439632171
aF1.8240895661445091
aF1.3965851739313015
aF0.66735881634011407
aF0.21888384512712813
aF0.1961466492612963
aF0.14693234529246599
aF0.13887469536911032
aF0.13657087850759775
aF0.12780700397059705
aF0.11759370071517231
aF0.1057648280503086
aF0.059642514366652265
aF0.05304095515857761
aF0.048151121361114997
aF0.043490007748532983
aF0.037635697769175303
aF0.03673647041531683
aF0.034104352966653262
aF0.032051754474714686
aF0.02932172645031364
aF0.023803553669113013
aF0.0002499450910716434
aF6.3270433059551282e-05
aF0.0028045382149753887
aF0.0072649292986486889
aF0.0074832096548382715
aF0.010830630544258306
aF0.012383850848823567
aF0.015964138156235999
aF0.015310737735877652
aF0.014516771968346163
aa(lp64
F29.584498140525426
aF26.36905530578591
aF19.393856120162461
aF16.113912087288817
aF13.127995237571303
aF10.776651163494032
aF9.1921103104936783
aF7.9190534684397633
aF7.3082179266710741
aF6.1047556646450634
aF5.2640106277753107
aF4.8166002939499863
aF3.759336073005505
aF3.4186238891948957
aF3.021424973927318
aF2.5220367229484366
aF2.1796853148741397
aF2.0289245627601318
aF1.8410014040823235
aF1.5356517285838529
aF0.88008829286721746
aF0.62980547798062947
aF0.21802620644104187
aF0.19599844009527584
aF0.14670607333326166
aF0.13835935740165051
aF0.13655938435235546
aF0.12779882943047305
aF0.11724632513877702
aF0.10573888104373921
aF0.059602439456848899
aF0.05278206301089336
aF0.048078823588866712
aF0.043489567881193028
aF0.037598951555435509
aF0.03655533114677504
aF0.034101151927181522
aF0.032051740208648309
aF0.029321718752330049
aF0.023803550187640223
aF0.00024969610381288498
aF6.3234408133243061e-05
aF0.0028044393397929877
aF0.0074802761415133307
aF0.0072624120283605181
aF0.010826927186844018
aF0.012380442017180755
aF0.015964123579872438
aF0.015310627212311913
aF0.014516771353408084
aaI281
aI454
aI227
a.