(lp1
I9156
a(lp2
(I0
I3
tp3
a(I0
I3
tp4
a(I0
I3
tp5
a(I0
I3
tp6
a(I0
I3
tp7
a(I0
I3
tp8
a(I0
I3
tp9
a(I0
I3
tp10
a(I0
I3
tp11
a(I0
I3
tp12
a(I0
I3
tp13
a(I0
I3
tp14
a(I0
I3
tp15
a(I0
I3
tp16
a(I0
I3
tp17
a(I0
I3
tp18
a(I0
I3
tp19
a(I0
I3
tp20
a(I0
I3
tp21
a(I0
I2
tp22
a(I0
I2
tp23
a(I0
I1
tp24
a(I0
I2
tp25
a(I0
I2
tp26
a(I0
I2
tp27
a(I0
I2
tp28
a(I0
I2
tp29
a(I0
I1
tp30
a(I0
I0
tp31
a(I0
I1
tp32
a(I0
I0
tp33
a(I0
I1
tp34
a(I0
I2
tp35
a(I0
I2
tp36
a(I0
I2
tp37
a(I0
I2
tp38
aa(lp39
F0.0060495551723587226
aF0.35229762474329451
aF0.14341004320358364
aF0.037809719827246568
aF0.0086739945486042913
aF0.21051117539111353
aF0.24171531475442609
aF0.0046261304259220815
aF0.001734798909720392
aF0.00017792809330496873
aF0.42683837533213209
aF0.13384640818845295
aF0.52378694517152635
aF0.0043147562626361102
aF0.0069391956388837883
aF0.0034251157961118217
aF0.2691162411233492
aF0.0046706124492490453
aF0.23218504125679607
aF1.0306818419849386
aF0.00093412248985158541
aF0.33503859969274163
aF0.247942798020091
aF0.1495485624225954
aF0.0058716270790597491
aF0.43472281396669565
aF0.0037809719827279764
aF0.12454966531328759
aF0.013744945207788462
aF0.0090298507352120083
aa(lp40
F26.214693321734138
aF15.771473464920067
aF14.921632087612855
aF13.876321574566314
aF12.563121188981086
aF11.311819056427984
aF-3.0071834603355598
aF9.7999991973642064
aF9.0405675844648012
aF8.5259563925974682
aF8.1195706706279314
aF7.4762418372927328
aF6.8655379964062453
aF6.475415712286245
aF5.6527326301519922
aF5.3420666579828984
aF4.4478562358665856
aF4.2006305849434238
aF4.0601212900350037
aF3.377855449334199
aF0.019367704141053044
aF2.8287972318046397
aF2.4204513153124778
aF0.21981692401282193
aF0.47883716968875828
aF0.58475629948967889
aF1.0689856482117579
aF1.9609086450030677
aF1.6113295899854134
aF1.3554358716884696
aa(lp41
F28.334435864778527
aF15.923993097308246
aF15.102451422481298
aF13.882075841335347
aF12.675656290080166
aF11.377757849542251
aF10.097079913614454
aF9.0931940441994765
aF8.5286429425049946
aF8.1993045697353288
aF7.7979087455922933
aF7.1077256290037356
aF6.5179575925796476
aF6.1538962054028765
aF5.3420831075954585
aF4.447898195999703
aF4.2253384446318814
aF4.1538483431860032
aF0.017827361162295635
aF0.21689392492722034
aF0.5156294486883557
aF0.43695052604322132
aF0.81159687842755979
aF1.0689867279677869
aF1.3585380257234725
aF1.9479241400889946
aF2.4204469945494957
aF3.4071222292924892
aF2.8599524427990604
aF2.8143691452848683
aaI177
aI286
aI143
a.