(lp1
I7290
a(lp2
(I0
I3
tp3
a(I0
I3
tp4
a(I0
I3
tp5
a(I0
I3
tp6
a(I0
I3
tp7
a(I0
I3
tp8
a(I0
I3
tp9
a(I0
I3
tp10
a(I0
I3
tp11
a(I0
I3
tp12
a(I0
I3
tp13
a(I0
I3
tp14
a(I0
I3
tp15
a(I0
I3
tp16
a(I0
I3
tp17
a(I0
I3
tp18
a(I0
I3
tp19
a(I0
I2
tp20
a(I0
I2
tp21
a(I0
I2
tp22
a(I0
I2
tp23
a(I0
I2
tp24
a(I0
I0
tp25
a(I0
I1
tp26
a(I0
I2
tp27
a(I0
I1
tp28
a(I0
I2
tp29
a(I0
I2
tp30
a(I0
I1
tp31
a(I0
I1
tp32
a(I0
I1
tp33
a(I0
I2
tp34
a(I0
I1
tp35
a(I0
I2
tp36
a(I0
I2
tp37
aa(lp38
F0.045051835415688968
aF0.43131526412902665
aF0.052757533961903413
aF0.00032616713423117005
aF0.51746415845785187
aF0.039058514324189775
aF0.0035062966929850781
aF0.0068495098188559034
aF0.0016308356711530747
aF0.17780185904780046
aF0.28262382181136458
aF1.318938349047551
aF0.45431004709232514
aF0.30133766113788285
aF0.0016308356711576266
aF0.018265359516947299
aF0.00065233426846322828
aF0.042809436367848619
aF0.0063602591175095924
aF0.03220900450533204
aF0.030578168834177522
aF0.98743022799327873
aF0.12426967814209844
aF0.4492952274035249
aF0.018836152001854067
aF0.18982927212257775
aF0.13625632032509905
aF0.012638976451459172
aF0.028947333163022559
aF0.99432050870391464
aa(lp39
F28.550733625077168
aF20.037883311309663
aF19.33440640612071
aF-6.5768999865069162
aF12.346378933826363
aF11.971515565432599
aF10.369214003889121
aF9.278199502056518
aF8.1810704464942692
aF7.2317672845239152
aF5.9552298865686151
aF5.6063072043085072
aF5.4984669953644563
aF4.6222314491969954
aF4.12805867205536
aF3.7974904560046725
aF3.4901072094712773
aF2.9048520145394292
aF2.7896075927376991
aF2.3411564133807348
aF2.1937276955577354
aF1.6758360307749636
aF1.1013744824382279
aF0.80997853667441921
aF0.61430017849275198
aF0.37418184271345378
aF0.27747659227425964
aF0.0093137198824353746
aF0.029811758563606947
aF0.03438860455507415
aa(lp40
F33.420049351687339
aF22.568761751685841
aF19.489165579778941
aF12.760293690808373
aF12.124444200602309
aF10.809772462942121
aF9.3112090473378171
aF8.8431590111317142
aF7.4825506117051042
aF6.4361587379051066
aF5.6500848138994897
aF5.5935875075664239
aF4.907498905308846
aF4.1351276369997079
aF3.7976327997072361
aF3.4912086110875471
aF3.2656268955977907
aF2.8953974702574787
aF2.420589920917998
aF2.2519207003020325
aF1.9332844058699592
aF1.6573600041249403
aF1.0871989244575755
aF0.76033374586568525
aF0.60861598754621038
aF0.0089152087892985475
aF0.028877184128204371
aF0.034023327285320336
aF0.34574336123383292
aF0.25809156019427448
aaI177
aI286
aI143
a.