(lp1
I9319
a(lp2
(I0
I3
tp3
a(I0
I3
tp4
a(I0
I3
tp5
a(I0
I3
tp6
a(I0
I3
tp7
a(I0
I3
tp8
a(I0
I3
tp9
a(I0
I3
tp10
a(I0
I3
tp11
a(I0
I3
tp12
a(I0
I3
tp13
a(I0
I3
tp14
a(I0
I3
tp15
a(I0
I3
tp16
a(I0
I3
tp17
a(I0
I3
tp18
a(I0
I3
tp19
a(I0
I3
tp20
a(I0
I3
tp21
a(I0
I2
tp22
a(I0
I2
tp23
a(I0
I2
tp24
a(I0
I2
tp25
a(I0
I2
tp26
a(I0
I2
tp27
a(I0
I2
tp28
a(I0
I2
tp29
a(I0
I2
tp30
a(I0
I2
tp31
a(I0
I2
tp32
a(I0
I0
tp33
a(I0
I1
tp34
a(I0
I2
tp35
a(I0
I1
tp36
a(I0
I2
tp37
aa(lp38
F0.0056650674030791492
aF0.0052721147508432153
aF0.0017928464758324991
aF0.33274357363291962
aF0.0040850702805452777
aF0.37606114586629547
aF0.18418836922238491
aF3.2746054351995291e-05
aF0.28605315780118135
aF0.54250388246718639
aF0.63268651615552507
aF0.0085712797269146268
aF0.32594330967893637
aF0.37251092780684414
aF0.32959722357716226
aF0.49388144942860857
aF0.0033237245168367124
aF0.16623534492332137
aF0.00014735724458914135
aF0.005796051620500009
aF0.077018719838403804
aF0.0085712797269145158
aF0.22160892283435096
aF0.0050101463160183712
aF0.69346865071053632
aF0.025034358552915137
aF0.088537144457092376
aF0.0017273543671239011
aF0.0041833084436015966
aF0.005967968405848012
aa(lp39
F21.974965326827256
aF15.968044746016002
aF15.336634478621155
aF14.40739086455106
aF13.275430048002187
aF-3.1533817959236048
aF11.610794906440326
aF10.655739116547096
aF9.929207754442265
aF9.8113472603982395
aF8.9165464193899275
aF8.3651933522349431
aF7.6848535133360176
aF7.2077996582420392
aF6.2664408731998797
aF5.7581554141998526
aF4.8981614215052582
aF4.5756824274386956
aF3.8833786300793034
aF3.3762561417786712
aF0.0018635378119281698
aF0.060511825710032212
aF0.10177254989918204
aF0.33145298471232321
aF0.94993976622922316
aF1.2679086148265346
aF1.5499524751381786
aF2.5409709140811234
aF2.1657358042958754
aF2.0301465108328731
aa(lp40
F21.978093211976258
aF16.461772102639195
aF15.534151604156758
aF14.408950317719793
aF13.453340004887083
aF11.641786034565037
aF10.706960328145422
aF10.175998282954918
aF9.8579111834602848
aF9.5272890121332043
aF8.5743041850116093
aF8.0603800601682849
aF7.2450527665775288
aF6.4536172473300724
aF5.8183226013198048
aF5.373863115532469
aF4.8560762251447169
aF4.1028177631188631
aF3.6593984657013228
aF3.0286476106021607
aF2.4636807858998098
aF2.125725518538466
aF1.735800244379849
aF1.4367988473401638
aF0.98501378163782394
aF0.53548187853900686
aF0.0018452783445341246
aF0.057359488577820875
aF0.10172214520552253
aF0.31651491614217631
aaI159
aI250
aI125
a.