(lp1
I9104
a(lp2
(I0
I3
tp3
a(I0
I3
tp4
a(I0
I3
tp5
a(I0
I3
tp6
a(I0
I3
tp7
a(I0
I3
tp8
a(I0
I3
tp9
a(I0
I3
tp10
a(I0
I3
tp11
a(I0
I3
tp12
a(I0
I3
tp13
a(I0
I3
tp14
a(I0
I3
tp15
a(I0
I3
tp16
a(I0
I1
tp17
a(I0
I1
tp18
a(I0
I1
tp19
a(I0
I2
tp20
a(I0
I2
tp21
a(I0
I2
tp22
a(I0
I2
tp23
a(I0
I0
tp24
a(I0
I0
tp25
a(I0
I2
tp26
a(I0
I1
tp27
a(I0
I1
tp28
a(I0
I2
tp29
a(I0
I1
tp30
a(I0
I2
tp31
a(I0
I2
tp32
a(I0
I1
tp33
a(I0
I2
tp34
a(I0
I2
tp35
a(I0
I1
tp36
a(I0
I2
tp37
a(I0
I2
tp38
aa(lp39
F0.45896086990232338
aF0.0039601259862795946
aF0.00059106358004124004
aF0.21963922634346861
aF0.018244162503951993
aF0.017988034952600263
aF0.16046062723507831
aF0.031089944310189705
aF0.003782806912266427
aF0.01920956635135318
aF0.005674210368399546
aF0.32247115452448893
aF0.0081369752852397947
aF0.060721931789610273
aF0.010639144440749149
aF0.0058318273230772745
aF1.6887211871638232
aF0.10887391144366831
aF1.6538550033144772
aF0.015958716661123848
aF0.2612501023783993
aF0.11023335767776296
aF5.9106358004212822e-05
aF0.61235500366934881
aF0.63358732093906645
aF0.0013003398760916829
aF0.059460996152187473
aF0.173299841668205
aF0.00029553179002132779
aF0.014303738637007457
aa(lp40
F31.328852395859183
aF20.954682080986988
aF-11.527697241130083
aF17.945292053232368
aF14.517669705352212
aF11.625671493627202
aF10.40926099030319
aF8.410263727566841
aF7.968903655527523
aF7.1541259963922492
aF6.5500536107461995
aF6.4166977788798345
aF5.7933130266777271
aF4.8813485461212824
aF4.4500950796725585
aF4.1656629040455577
aF3.0588071845134421
aF3.0890404699532676
aF2.2391350946868749
aF2.0863870744144442
aF1.9479225015739652
aF1.2850065246464362
aF1.0326512362806088
aF0.89447674231727947
aF0.54955174355834779
aF0.02452257564090805
aF0.0071454977862926029
aF0.12284874555068973
aF0.41308137326124317
aF0.32410878261371595
aa(lp41
F33.908617908251927
aF23.958646288504724
aF19.195782821764396
aF14.975765805027905
aF13.387041256359431
aF11.541616125290075
aF9.6263994620852511
aF8.3198764474270384
aF7.154142511767156
aF6.5555002776369289
aF6.4169091354662262
aF5.7941504762935399
aF5.5946779724144529
aF4.5918478171540293
aF4.4479745963470432
aF4.1449137694987543
aF3.0729860920783696
aF2.7808499413094161
aF2.2253523343923183
aF2.0230076281875276
aF0.024499266049554828
aF0.0071107225963363456
aF0.12284868905429594
aF0.32167986443779328
aF0.39505745312661666
aF0.52538709573474163
aF1.4017411292002286
aF1.2667133320874766
aF0.87087117693114857
aF1.0040741475871595
aaI177
aI286
aI143
a.