(lp1
I1443
a(lp2
(I0
I3
tp3
a(I0
I3
tp4
a(I0
I3
tp5
a(I0
I3
tp6
a(I0
I3
tp7
a(I0
I3
tp8
a(I0
I3
tp9
a(I0
I3
tp10
a(I0
I3
tp11
a(I0
I3
tp12
a(I0
I3
tp13
a(I0
I3
tp14
a(I0
I3
tp15
a(I0
I2
tp16
a(I0
I2
tp17
a(I0
I2
tp18
a(I0
I2
tp19
a(I0
I1
tp20
a(I0
I1
tp21
a(I0
I1
tp22
a(I0
I2
tp23
a(I0
I2
tp24
a(I0
I1
tp25
a(I0
I1
tp26
a(I0
I1
tp27
a(I0
I2
tp28
a(I0
I1
tp29
a(I0
I2
tp30
a(I0
I1
tp31
a(I0
I1
tp32
a(I0
I1
tp33
a(I0
I2
tp34
a(I0
I0
tp35
a(I0
I0
tp36
a(I0
I0
tp37
a(I0
I2
tp38
a(I0
I0
tp39
a(I0
I1
tp40
a(I0
I2
tp41
a(I0
I1
tp42
a(I0
I2
tp43
a(I0
I1
tp44
a(I0
I1
tp45
a(I0
I2
tp46
a(I0
I1
tp47
a(I0
I2
tp48
a(I0
I1
tp49
a(I0
I0
tp50
a(I0
I1
tp51
a(I0
I1
tp52
a(I0
I0
tp53
a(I0
I2
tp54
a(I0
I2
tp55
a(I0
I2
tp56
a(I0
I0
tp57
a(I0
I2
tp58
a(I0
I1
tp59
a(I0
I2
tp60
a(I0
I2
tp61
a(I0
I2
tp62
a(I0
I2
tp63
aa(lp64
F0.003701655936474979
aF0.0017555384594178519
aF0.024427937155202695
aF0.00051514874392633025
aF0.12391376178492869
aF0.0022954039360080225
aF0.00014830039597913541
aF0.0003902641999451277
aF0.00039806948394294217
aF0.0019747368517206154
aF0.00049953817592907068
aF3.9026419993981598e-05
aF0.00093663407986732672
aF0.00015610567997792479
aF0.67226054669361557
aF0.00016391096397677662
aF0.47792859673789484
aF3.1221135994963234e-05
aF7.02475559907767e-05
aF0.00055417516392158861
aF0.00034343249595125691
aF0.38345721312430731
aF0.75928339250483035
aF7.805283999684498e-06
aF0.0042304639273999523
aF0.00031221135995573857
aF3.9026419995646933e-05
aF0.00039806948394316422
aF0.00015610567997792479
aF0.00051514874392699639
aF1.1906882687471554
aF0.0013425088478097036
aF3.1221135995584265e-05
aF0.00054636987992301433
aF0.92888074978990653
aF7.8052839977971189e-06
aF0.0051153880007737129
aF0.16953107334986656
aF0.040426167591600615
aF0.0023067866418398919
aF0.087186973588636363
aF7.02475559902771e-05
aF1.5610567997828562e-05
aF0.00027318493996123655
aF0.0003512377799503863
aF0.00034343249595189529
aF0.0030050343395739976
aF0.99461691938278585
aF0.01596375709873632
aF0.0052997878352493144
aa(lp65
F24.975852095529458
aF14.776126257399717
aF-7.7312024314941414
aF11.831705209433109
aF10.637454603916186
aF9.8035023538677137
aF8.8770416099080869
aF6.9865651783690135
aF5.795064992121028
aF5.2696466258735386
aF3.9142878234411556
aF3.1554215635675806
aF2.9049399550275221
aF2.4333301687619247
aF2.1054924124717407
aF1.2336762956752256
aF1.1748202301774902
aF1.0600729800910373
aF1.0075351419778704
aF1.0002690608521154
aF0.94541196367781166
aF0.79184364733202495
aF0.61045898034187229
aF0.56698318033451367
aF0.51183561780410003
aF0.48211873124280191
aF0.39191608612077383
aF0.36929090197864523
aF0.0013916579562504852
aF0.32968224035204757
aF0.022828387427613703
aF0.30412868507076013
aF0.29389705810063371
aF0.27828843196507141
aF0.040834219620252937
aF0.046472190105531663
aF0.058686344890826921
aF0.090441734478640595
aF0.10050325910086633
aF0.10800117500697141
aF0.11257183179127969
aF0.11825214971431924
aF0.14026189215227622
aF0.14506193736715367
aF0.16301785985728784
aF0.19400896199273313
aF0.24290412912889175
aF0.23306612014339401
aF0.21946551781372947
aF0.21602482266932588
aa(lp66
F25.118704859067357
aF17.873549724401034
aF13.056738225863855
aF11.69293726341607
aF10.522664194123369
aF9.2917627597524994
aF8.2938068381893775
aF6.3602228804656606
aF5.392479057343329
aF3.9250022698984197
aF3.2321327673521503
aF3.1115293571164933
aF2.5799404778245991
aF2.431175513650675
aF1.9357853949327599
aF1.2336284981140413
aF1.1610324320999132
aF1.0474933606591086
aF1.0007025126876203
aF0.99326977360312074
aF0.90576728599477019
aF0.78448696887507197
aF0.59121539766396969
aF0.55092187300547668
aF0.51096676063901003
aF0.46904458701480123
aF0.39175279645445837
aF0.36814086411072561
aF0.32944632249886041
aF0.0013896431954637026
aF0.30348767818267686
aF0.29369370235689829
aF0.27758410136660361
aF0.022809376401419987
aF0.24220527085930144
aF0.22384027766053693
aF0.21915321417465491
aF0.21461288092350447
aF0.18638083737360026
aF0.04019339262144786
aF0.046185512123752478
aF0.058443456359571967
aF0.16130099437412379
aF0.14506120206193679
aF0.13782340316145641
aF0.090406367498238854
aF0.099961115485407218
aF0.11630125965927572
aF0.10690408002585676
aF0.10930088674834323
aaI282
aI456
aI228
a.