(lp1
I2195
a(lp2
(I0
I3
tp3
a(I0
I3
tp4
a(I0
I3
tp5
a(I0
I3
tp6
a(I0
I3
tp7
a(I0
I3
tp8
a(I0
I3
tp9
a(I0
I3
tp10
a(I0
I3
tp11
a(I0
I3
tp12
a(I0
I3
tp13
a(I0
I3
tp14
a(I0
I3
tp15
a(I0
I3
tp16
a(I0
I2
tp17
a(I0
I2
tp18
a(I0
I1
tp19
a(I0
I2
tp20
a(I0
I2
tp21
a(I0
I2
tp22
a(I0
I2
tp23
a(I0
I1
tp24
a(I0
I1
tp25
a(I0
I2
tp26
a(I0
I2
tp27
a(I0
I1
tp28
a(I0
I1
tp29
a(I0
I1
tp30
a(I0
I0
tp31
a(I0
I1
tp32
a(I0
I1
tp33
a(I0
I1
tp34
a(I0
I2
tp35
a(I0
I1
tp36
a(I0
I0
tp37
a(I0
I2
tp38
a(I0
I0
tp39
a(I0
I1
tp40
a(I1
I2
tp41
a(I0
I1
tp42
a(I0
I2
tp43
a(I0
I1
tp44
a(I0
I2
tp45
a(I0
I2
tp46
a(I0
I2
tp47
a(I0
I1
tp48
a(I0
I2
tp49
a(I0
I2
tp50
a(I0
I2
tp51
a(I0
I2
tp52
a(I0
I1
tp53
a(I0
I2
tp54
a(I0
I1
tp55
a(I0
I0
tp56
a(I0
I2
tp57
a(I0
I2
tp58
a(I0
I2
tp59
a(I0
I2
tp60
aa(lp61
F0.0016307157907383685
aF1.9623535387758295e-06
aF1.9623535383317403e-06
aF0.27073671430946422
aF0.0053972571730973584
aF0.4489725128132413
aF0.00090229015713805261
aF0.00070526986184216156
aF0.010078647775250804
aF0.40705295690581123
aF7.8494141551921359e-05
aF0.00052002368778092389
aF1.9623535386648072e-06
aF0.12759002925649643
aF0.0016307157907377023
aF8.4381202168470892e-05
aF0.0027351283623724548
aF0.60304317358125681
aF7.8494141555474073e-06
aF0.0045467731493881169
aF0.00038324764612618356
aF0.0040090882797579434
aF0.00046782508364773268
aF0.44906577366517086
aF1.0395876942449478
aF9.6155323400903825e-05
aF3.728471723718485e-05
aF0.0027272789482175597
aF0.0015384851744144612
aF9.615532340112587e-05
aF0.00085166143583938897
aF0.00023548242465576408
aF1.9623535387862379e-06
aF0.0004501639018021919
aF0.00051138933221031579
aF0.26489724076639876
aF0.0003910970602813979
aF0.0081853690810216317
aF0.024458774507543524
aF0.0010164991330956497
aF0.0024364581537678065
aF0.28972666461034713
aF0.092873640330963347
aF0.00027472949543129455
aF9.8117676936015918e-06
aF0.008326658535816378
aF0.80254595893818914
aF0.041225123143007705
aF2.5510596004585384e-05
aF0.59297535799753209
aa(lp62
F21.07662767196161
aF20.342825360082394
aF16.62478219999052
aF13.29895568385516
aF12.086415495095435
aF11.392735906937046
aF10.070046998642539
aF-4.952996893389721
aF8.7348327805899935
aF8.2562089213411074
aF8.0329602329837186
aF6.562455579540412
aF5.6564977318197744
aF4.8128234534629772
aF3.9972353859137124
aF3.3688827145490783
aF3.1765002073821149
aF2.8914335434649603
aF2.6954286264953189
aF2.4150916612199125
aF2.3073002523593349
aF2.1655975758667516
aF1.7376734195435759
aF1.5823119618344226
aF1.3907967866878841
aF1.0043438095018318
aF0.79594379387474101
aF0.72757293842273585
aF0.6089588649141584
aF0.57232092984715488
aF0.49825442950415882
aF0.37459432396009484
aF0.28221638637906277
aF0.24571808960724661
aF0.17314823642976349
aF0.17496814743541839
aF0.14923256322498896
aF0.14343387596987386
aF0.1374589477581204
aF0.093781895138844162
aF0.00086679506106174308
aF0.00019574610243760598
aF0.066768554148163337
aF0.054768156932654036
aF0.05166485025577635
aF0.035137675584001611
aF0.029068052994274927
aF0.022229174667059474
aF0.024296401340716648
aF0.023301647344988016
aa(lp63
F22.428600528315499
aF20.343808887398321
aF18.067235016870789
aF13.469554034510438
aF13.017123155784347
aF11.40934825628382
aF10.596603378554082
aF9.4589933364413934
aF8.4451396960542198
aF8.0566449119015697
aF6.7456044396488561
aF5.8395777603310099
aF4.8311103201708132
aF4.1156637178326054
aF3.3881827038024861
aF3.1848187404680015
aF2.9263961886395617
aF2.7201226521710202
aF2.6604182204204503
aF2.4140618766855919
aF2.1962528074256222
aF2.1371569703000355
aF1.7310199877605972
aF1.4648469338118297
aF1.3037315801746219
aF0.91231525606247832
aF0.77594178200930264
aF0.70633706022453879
aF0.60893851240547414
aF0.54841322981996854
aF0.49676932580302763
aF0.37428936840900401
aF0.27855606724207504
aF0.24377497386616404
aF0.17312138926111706
aF0.17496531991367309
aF0.14864115638133743
aF0.14308501301573565
aF0.13626726495801322
aF0.093760580459933934
aF0.00086678277267786274
aF0.00019563760177797971
aF0.065570817604627185
aF0.053396125572834179
aF0.051167250825239347
aF0.032696139289429479
aF0.028879195002328828
aF0.022228831421819598
aF0.024265505025369213
aF0.023135564315537552
aaI304
aI500
aI250
a.