(lp1
I6527
a(lp2
(I0
I3
tp3
a(I0
I3
tp4
a(I0
I3
tp5
a(I0
I3
tp6
a(I0
I3
tp7
a(I0
I3
tp8
a(I0
I3
tp9
a(I0
I3
tp10
a(I0
I3
tp11
a(I0
I3
tp12
a(I0
I3
tp13
a(I0
I3
tp14
a(I0
I3
tp15
a(I0
I3
tp16
a(I0
I3
tp17
a(I0
I3
tp18
a(I0
I3
tp19
a(I0
I1
tp20
a(I0
I2
tp21
a(I0
I2
tp22
a(I0
I1
tp23
a(I0
I1
tp24
a(I0
I2
tp25
a(I0
I2
tp26
a(I0
I2
tp27
a(I0
I1
tp28
a(I0
I2
tp29
a(I0
I2
tp30
a(I0
I2
tp31
a(I0
I2
tp32
a(I0
I1
tp33
a(I0
I2
tp34
a(I0
I2
tp35
a(I0
I2
tp36
aa(lp37
F0.0072496265756579747
aF0.05592569072650333
aF0.0045409748880476108
aF0.064210978241540317
aF0.00023899867831733701
aF0.0082056212889320967
aF0.095161307083771185
aF0.15775904424666276
aF0.011312604107070579
aF0.02700685064997721
aF0.018801229361047112
aF0.055766358274292216
aF0.0022306543309715821
aF0.098268289901910277
aF0.1210926636813156
aF0.042940095871202899
aF0.010117610715478342
aF0.001752656974336686
aF0.71926652239918698
aF0.78525007417158554
aF0.43445976406977455
aF0.17399103781578429
aF0.0060546331840662937
aF0.30583864202142946
aF0.22880140137680133
aF0.8530858657009539
aF0.00095599471327353913
aF0.46134711538059275
aF0.23999450614471374
aF0.075762581026928677
aa(lp38
F16.778824048202658
aF15.526012826950314
aF13.937741856723376
aF12.992847054409136
aF-4.0304862619914026
aF11.360918265440329
aF9.1682864812638662
aF8.8318748147693267
aF7.895928477211732
aF7.6195331354155229
aF6.4300350537122748
aF0.0049729963485613269
aF0.087875878598376131
aF0.25907551413828156
aF5.6383811535261232
aF5.4273633864541129
aF5.1925620505538639
aF4.8054767563210099
aF0.68969945202860172
aF0.98888409650064757
aF1.2984865105007526
aF1.4526284858790763
aF1.6696523792190698
aF2.0759130885230035
aF4.2599917499852795
aF2.4583537378877924
aF3.7762781526384681
aF2.9646927267315588
aF3.3494843683206867
aF3.2819510403111583
aa(lp39
F17.092833192578972
aF16.506937012011274
aF14.918640732012214
aF13.027723564780221
aF11.39491380453472
aF9.2175163961105611
aF8.8337274605118044
aF8.6516938204770479
aF7.6323132027476923
aF6.9487474519779564
aF5.7946668903640504
aF0.062907881319699363
aF0.0049624806050178006
aF0.25825566844124492
aF5.4619170320207795
aF5.1942348344411844
aF4.8166084166643302
aF0.6516587599704472
aF0.97899418706392927
aF1.25464531490543
aF1.3201488076794121
aF1.5921210883245067
aF1.7034453251120629
aF4.2694629366123893
aF2.4563026268498347
aF2.7605775352135278
aF3.7983907084868753
aF3.3559964454358315
aF3.3155405680563637
aF3.2164713549739465
aaI180
aI292
aI146
a.