(lp1
I3775
a(lp2
(I0
I3
tp3
a(I0
I3
tp4
a(I0
I3
tp5
a(I0
I3
tp6
a(I0
I3
tp7
a(I0
I3
tp8
a(I0
I3
tp9
a(I0
I3
tp10
a(I0
I3
tp11
a(I0
I3
tp12
a(I0
I3
tp13
a(I0
I3
tp14
a(I0
I3
tp15
a(I0
I3
tp16
a(I0
I1
tp17
a(I0
I1
tp18
a(I0
I2
tp19
a(I0
I1
tp20
a(I0
I1
tp21
a(I0
I2
tp22
a(I0
I2
tp23
a(I0
I2
tp24
a(I0
I2
tp25
a(I0
I1
tp26
a(I0
I0
tp27
a(I0
I2
tp28
a(I0
I2
tp29
a(I0
I2
tp30
a(I0
I1
tp31
a(I0
I1
tp32
a(I0
I2
tp33
a(I0
I2
tp34
a(I0
I2
tp35
a(I0
I1
tp36
a(I0
I2
tp37
aa(lp38
F0.58106901762901808
aF0.13782875235280589
aF0.0010495240993932953
aF0.017973100202107711
aF0.87323028879758868
aF0.025687102332647538
aF0.00020990481987864362
aF0.0045916679348448411
aF0.00026238102484829579
aF0.00057723825466610146
aF0.03386027125667157
aF1.0503899567751498
aF0.011229907863506583
aF0.0057986206491467129
aF0.16186285422890823
aF0.0097868122268411906
aF0.0025713340435129517
aF0.0026762864534525185
aF0.17651683446668587
aF0.010652669608840351
aF0.048278108572084352
aF0.0010232859969083186
aF0.108993077721978
aF0.72687415313721271
aF0.31874046898570052
aF0.0052213823944809445
aF0.0029386674782990573
aF0.0021252863012709844
aF0.45319762516920614
aF0.017290909537502168
aa(lp39
F20.111567304595916
aF19.907000426923368
aF16.78722929105593
aF12.689788719993508
aF11.156201189079516
aF-5.1034830877794866
aF9.2269610824706589
aF8.0911671957145703
aF6.1393701959276878
aF5.6536583349052822
aF5.1292838242907015
aF4.5130644407893143
aF3.5706655762139872
aF3.0549629064433059
aF2.9693694938454818
aF2.6643899737565446
aF2.3024057799861093
aF1.8575283706172601
aF1.6771766451647288
aF1.5821557579924861
aF1.2738238790978991
aF0.040141837224971423
aF0.081132260063676617
aF0.30024404339093358
aF0.35683425058881046
aF0.53050944493752539
aF0.63511760951040308
aF0.72524625710061708
aF0.79169836924238035
aF0.86307030564532661
aa(lp40
F20.439828622376417
aF19.908463923385007
aF17.331224053815252
aF13.333781740269211
aF11.714527464168409
aF10.306662503556803
aF8.6924138787800587
aF6.1452391382004343
aF5.680092711628042
aF5.232273734712396
aF4.7432967429135937
aF4.3155864227494956
aF3.3178444095435569
aF3.0524115843969679
aF2.9506940726760758
aF2.4844481175102917
aF2.2002860090690119
aF1.8573685155425301
aF1.6275799884133224
aF1.5816735831609663
aF1.1733335257105062
aF0.039002923147189249
aF0.078947011836418571
aF0.29683793896331534
aF0.39305108875727995
aF0.33915791864986461
aF0.86296261530092433
aF0.7376651135276503
aF0.64015638849886236
aF0.63051407884452293
aaI181
aI294
aI147
a.