(lp1
I4402
a(lp2
(I0
I3
tp3
a(I0
I3
tp4
a(I0
I3
tp5
a(I0
I3
tp6
a(I0
I3
tp7
a(I0
I3
tp8
a(I0
I3
tp9
a(I0
I3
tp10
a(I0
I3
tp11
a(I0
I3
tp12
a(I0
I3
tp13
a(I0
I3
tp14
a(I0
I2
tp15
a(I0
I2
tp16
aa(lp17
F0.065536763775768614
aF1.1777712643933804
aF0.86836212002893465
aF0.67427247346223484
aF0.020165158084850532
aF0.12099094850911137
aF0.71271230606148372
aF0.75367278342133925
aF0.91499404810015483
aF1.3586275259668956
aa(lp18
F-13.706946182779841
aF22.211898064078017
aF17.911812288680864
aF12.724531164884262
aF10.992828859484808
aF7.8952402042157006
aF0.25835923562725416
aF4.5326144008698845
aF3.5462939005701495
aF1.5113172073661512
aa(lp19
F23.432289508801997
aF18.807208791718747
aF0.25634599021732579
aF7.2048265375248892
aF1.2814026197412767
aF2.5764943912106917
aF4.2917896103121969
aF13.406294440889486
aF10.800140096142853
aF11.318141795973403
aaI57
aI86
aI43
a.