(lp1
I6465
a(lp2
(I0
I3
tp3
a(I0
I3
tp4
a(I0
I3
tp5
a(I0
I3
tp6
a(I0
I3
tp7
a(I0
I3
tp8
a(I0
I3
tp9
a(I0
I3
tp10
a(I0
I3
tp11
a(I0
I3
tp12
a(I1
I2
tp13
a(I1
I2
tp14
a(I1
I2
tp15
a(I1
I2
tp16
aa(lp17
F0.88314700405051272
aF0.78591981094403374
aF1.0127832615258174
aF0.19040325316685325
aF1.1545729181394329
aF0.16204532184413023
aF0.64818128737652403
aF0.98442533020309453
aF0.7454084804830009
aF0.57526089254666446
aa(lp18
F-8.7809403251892917
aF26.446063530880632
aF23.475077783799641
aF1.0716861020873829
aF1.8471821672569599
aF3.6372458011006903
aF8.4852911690805684
aF18.716731480147729
aF16.199140955109971
aF12.957073665716925
aa(lp19
F27.939884238776617
aF0.38910764410095966
aF1.5175784082597008
aF3.554062590531176
aF23.513154886183244
aF20.647730513062786
aF8.1491162052318948
aF16.82083834023468
aF13.220680106236973
aF12.681160727748475
aaI62
aI96
aI48
a.