(lp1
I7451
a(lp2
(I0
I3
tp3
a(I0
I3
tp4
a(I0
I3
tp5
a(I0
I3
tp6
a(I0
I3
tp7
a(I0
I3
tp8
a(I0
I3
tp9
a(I0
I3
tp10
a(I1
I3
tp11
a(I0
I3
tp12
a(I0
I2
tp13
a(I0
I2
tp14
a(I1
I2
tp15
a(I0
I2
tp16
aa(lp17
F0.012281272679835364
aF0.89530477836001843
aF0.11298770865448793
aF0.79214208784939855
aF0.23457230818486074
aF0.99969559613862102
aF0.69757628821466433
aF1.4626995761684243
aF0.088425163294816866
aF0.0049125090719341902
aa(lp18
F27.223274209418165
aF20.785402704497564
aF-7.7008592289353244
aF16.937424565900912
aF12.278168571056856
aF7.3107005634983411
aF3.1190481048612102
aF1.7679762226665483
aF0.60700866604054127
aF0.93368842759173243
aa(lp19
F30.81414658097674
aF22.694946669427168
aF17.63637828551888
aF13.02466560460107
aF10.6790284908332
aF3.8504063860463447
aF2.2558770610132606
aF0.58901973826043386
aF0.84835043812184197
aF1.3903659854782726
aaI60
aI92
aI46
a.