(lp1
I1838
a(lp2
(I0
I3
tp3
a(I0
I3
tp4
a(I0
I3
tp5
a(I0
I3
tp6
a(I0
I3
tp7
a(I0
I3
tp8
a(I0
I3
tp9
a(I0
I3
tp10
a(I0
I3
tp11
a(I0
I3
tp12
a(I0
I3
tp13
a(I0
I3
tp14
a(I0
I3
tp15
a(I0
I2
tp16
a(I0
I2
tp17
a(I0
I2
tp18
a(I0
I2
tp19
a(I0
I2
tp20
a(I0
I2
tp21
a(I0
I1
tp22
a(I0
I0
tp23
a(I0
I0
tp24
a(I0
I1
tp25
a(I0
I1
tp26
a(I0
I2
tp27
a(I0
I2
tp28
a(I0
I2
tp29
a(I0
I1
tp30
a(I0
I2
tp31
a(I0
I2
tp32
a(I0
I2
tp33
a(I0
I0
tp34
a(I0
I2
tp35
a(I0
I2
tp36
a(I0
I1
tp37
a(I0
I2
tp38
a(I0
I2
tp39
aa(lp40
F0.00015968135889332657
aF0.29079971471334265
aF1.9960169861721333e-05
aF0.029228342067305513
aF0.21407282176543341
aF0.0012574907012794512
aF0.16350040472614591
aF0.0055888475612413391
aF0.0026946229313131731
aF0.00017964152875421524
aF0.0021556983450504962
aF9.9800849307274397e-05
aF0.00011976101916921778
aF0.018602878310991944
aF0.003053905988821565
aF1.1466917983778453
aF0.013360007027349852
aF0.012415225653901407
aF0.005708608580411334
aF1.0502242974368341
aF0.0090219967774334275
aF1.3378569985321396
aF0.00071856611501683147
aF0.41282288646712861
aF0.0074717569181836918
aF0.010858332404697801
aF0.00027944237806154515
aF0.0079641077747698037
aF0.80659046410640278
aF0.56443368334572686
aa(lp41
F36.919863845609449
aF23.285889149813833
aF15.665808577450001
aF-8.4881425223392775
aF13.254132419459969
aF12.785841537573022
aF11.172737589104345
aF10.338763786736159
aF7.3187382319906238
aF6.0285203453308345
aF5.1288087002069096
aF4.6456295165597599
aF3.8390134371625551
aF3.029527962512744
aF2.1107973763321479
aF2.0684365871171058
aF1.5560515944880788
aF0.89299355561551563
aF0.79775161223207303
aF0.69968035578653431
aF0.56486905645414709
aF0.49782876726848929
aF0.47033431179724017
aF0.0078418616574609315
aF0.05137171963672376
aF0.076008572035298705
aF0.26083025402605042
aF0.17036087039258982
aF0.19108479028615102
aF0.22247587031272148
aa(lp42
F39.608881098300238
aF28.28447407937086
aF15.834694252314959
aF13.264885704005009
aF12.840281961894373
aF11.299632918103173
aF10.343474992157692
aF8.3423116033801197
aF6.7742883727455334
aF5.8694105405812076
aF4.9874114389870297
aF3.9867699198908686
aF3.6180245090510219
aF2.4719426187575051
aF2.0915659901562509
aF1.6804818423631089
aF1.4052244557784186
aF0.89186498428398653
aF0.79696794188636311
aF0.69964521105938382
aF0.55999769967776791
aF0.49529041794871675
aF0.46653786948064663
aF0.007795151100671578
aF0.048215021191796097
aF0.075925454710117773
aF0.26069422453944291
aF0.16995884664236605
aF0.19030954613382942
aF0.22246582314776076
aaI172
aI276
aI138
a.