(lp1
I5262
a(lp2
(I0
I3
tp3
a(I0
I3
tp4
a(I0
I3
tp5
a(I0
I3
tp6
a(I0
I3
tp7
a(I0
I3
tp8
a(I0
I3
tp9
a(I0
I3
tp10
a(I0
I3
tp11
a(I0
I3
tp12
a(I0
I3
tp13
a(I0
I3
tp14
a(I0
I3
tp15
a(I0
I3
tp16
a(I0
I3
tp17
a(I0
I3
tp18
a(I0
I3
tp19
a(I0
I2
tp20
a(I0
I1
tp21
a(I0
I2
tp22
a(I0
I2
tp23
a(I0
I2
tp24
a(I0
I2
tp25
a(I0
I2
tp26
a(I0
I2
tp27
a(I0
I2
tp28
a(I0
I0
tp29
a(I0
I2
tp30
a(I0
I2
tp31
a(I0
I1
tp32
a(I0
I2
tp33
a(I0
I2
tp34
a(I0
I2
tp35
a(I0
I2
tp36
a(I0
I2
tp37
aa(lp38
F0.075401614644365123
aF0.75072790086460084
aF0.00016418424527842035
aF0.24676892065429468
aF0.0098510547167386386
aF0.79125404540763178
aF0.23927117345321225
aF0.78105637950642204
aF0.0012313818395914902
aF0.0035846893552577974
aF0.0065947338520389032
aF0.94324304980115559
aF0.00065673698111756718
aF0.0077029775076713491
aF0.00057464485847561299
aF0.0066905079951165014
aF0.54661039859500793
aF0.056151011885411717
aF0.0022164873112664463
aF0.049378411767653896
aF0.19784201556115433
aF0.00082092122639432219
aF0.11684445455686454
aF0.038378067333956101
aF0.071611694982510743
aF0.46521605899795959
aF0.14259401702477792
aF0.0023806715565415359
aF0.21372684129189368
aF0.012067542028003864
aa(lp39
F25.137045218567707
aF20.391804868300003
aF16.644468614094436
aF14.829756327007928
aF13.005280262396964
aF12.253200719854599
aF-4.5554876602070218
aF10.173687477532923
aF9.0646343818901638
aF8.4763844484456445
aF7.9662161717269599
aF6.7276337241777595
aF6.0245962518043283
aF4.8862218826165256
aF4.5790102977525322
aF4.43201234555774
aF3.5840800534666517
aF3.3090524759208533
aF2.7522732256404336
aF1.9593184697530868
aF1.6587957045658275
aF1.4426531776716944
aF1.1581311745432559
aF0.83042026797400192
aF0.65423447707438087
aF0.0060588489257828318
aF0.083835109411485698
aF0.22255798334486518
aF0.41775081708483747
aF0.35147717192523209
aa(lp40
F27.533485268219632
aF20.49757399768442
aF16.698246615683505
aF15.966705891000892
aF14.137475621714788
aF12.293859004701702
aF10.441808026506148
aF9.5129142303908534
aF8.6342624164519375
aF8.138920522193601
aF6.735003156185015
aF6.0382405943955808
aF5.0073200251208219
aF4.8233718705861941
aF4.4360839522611641
aF4.1465705222206886
aF3.5375630201175188
aF2.8663644929293977
aF2.6910567887330239
aF1.9239037458100881
aF1.4680539259588157
aF1.3548863545179963
aF1.1022571782793542
aF0.005859840565379023
aF0.066776145979361393
aF0.73995657097201128
aF0.53225479977807
aF0.22231458787328134
aF0.40334089486951075
aF0.35022230670824439
aaI176
aI284
aI142
a.