(lp1
I2625
a(lp2
(I0
I3
tp3
a(I0
I3
tp4
a(I0
I3
tp5
a(I0
I3
tp6
a(I0
I3
tp7
a(I0
I3
tp8
a(I0
I3
tp9
a(I0
I3
tp10
a(I0
I3
tp11
a(I0
I3
tp12
a(I0
I3
tp13
a(I0
I3
tp14
a(I0
I3
tp15
a(I0
I3
tp16
a(I0
I3
tp17
a(I0
I3
tp18
a(I0
I3
tp19
a(I0
I3
tp20
a(I0
I2
tp21
a(I0
I2
tp22
a(I0
I2
tp23
a(I0
I1
tp24
a(I0
I1
tp25
a(I0
I2
tp26
a(I0
I2
tp27
a(I0
I1
tp28
a(I0
I1
tp29
a(I0
I2
tp30
a(I0
I2
tp31
a(I0
I2
tp32
a(I0
I2
tp33
a(I0
I2
tp34
a(I0
I2
tp35
a(I0
I2
tp36
a(I0
I1
tp37
a(I0
I1
tp38
a(I0
I1
tp39
a(I0
I2
tp40
a(I0
I2
tp41
a(I0
I2
tp42
a(I0
I2
tp43
a(I0
I2
tp44
a(I0
I2
tp45
a(I0
I2
tp46
a(I0
I2
tp47
a(I0
I1
tp48
a(I0
I0
tp49
a(I0
I1
tp50
a(I0
I0
tp51
a(I0
I0
tp52
a(I0
I1
tp53
a(I0
I0
tp54
a(I0
I1
tp55
a(I0
I2
tp56
a(I0
I2
tp57
a(I0
I2
tp58
a(I0
I2
tp59
a(I1
I2
tp60
aa(lp61
F0.72119968827879277
aF0.42854537598974562
aF2.2716238663011978e-05
aF0.2796823304026208
aF0.062041833824828863
aF0.0040949806227455754
aF0.0016158817768008316
aF0.19307795775848496
aF0.17743161833468279
aF6.3605468251404229e-05
aF0.002026288488619965
aF0.0019899425067655407
aF0.0020217452408894943
aF1.8172990928988497e-05
aF4.5432477335793919e-06
aF2.2716238661568688e-05
aF0.0012805900941544879
aF0.36044312733289702
aF0.0041404131000694622
aF0.0030712354670607844
aF0.0030621489715947359
aF0.28052283123310362
aF0.006767924705271211
aF0.0009086495464675215
aF0.00083535181638572098
aF0.81304371281183174
aF0.00016355691836267283
aF0.00011358119330828753
aF1.3629743195409105e-05
aF0.00089956305100252765
aF0.032005665858398924
aF0.021889367574397189
aF1.3629743197185462e-05
aF5.9062220520544884e-05
aF1.3629743197240973e-05
aF0.11297239811227455
aF0.51867533411444078
aF0.40405840652438885
aF1.8172990928988497e-05
aF0.29499307526059471
aF0.019139945488378607
aF0.0064044648866824483
aF0.0020353749840875124
aF0.26536039817332513
aF4.5432477326912135e-06
aF0.0029258515396248796
aF4.5432477318030351e-06
aF3.1802734126978871e-05
aF3.1802734125840892e-05
aF0.17912955621358362
aa(lp62
F28.929375578942814
aF19.85258100504247
aF16.527457886113183
aF15.037661636922969
aF13.074563773852502
aF11.000363081614328
aF9.8243754683781166
aF9.4408016887332789
aF9.0698013886685391
aF8.6935870641443973
aF8.4717117764537697
aF7.7425577438439976
aF7.4741174001999129
aF-3.8551213392804842
aF5.3146054521725095
aF5.0587023844836043
aF4.3930888712799128
aF4.1983828097099893
aF4.0528731903177704
aF3.1605434795941467
aF2.6099917947929256
aF2.3279404217443385
aF2.1236099093740561
aF1.584657952104648
aF1.2727711569184967
aF1.1706912016845628
aF0.93882417652379957
aF0.78752281219099818
aF0.73918503560164828
aF0.6568168489696623
aF0.34075622597228766
aF0.31646854425625337
aF0.22293357670571246
aF0.20588231543897648
aF0.14008376855578358
aF0.12300990249413953
aF0.11565419281115243
aF0.00030515042724941143
aF0.0010830891582929944
aF0.012432152979261379
aF0.088780984050140482
aF0.033612983332171817
aF0.038220445741370249
aF0.039944334201683085
aF0.050668945273309458
aF0.055363105246321112
aF0.080727371798398104
aF0.073147483768075838
aF0.072107728866533813
aF0.064052080061913333
aa(lp63
F30.342559481395064
aF19.854008003491955
aF16.928965187374445
aF15.040752647702783
aF13.338319346693195
aF11.174332136843795
aF9.952276756008267
aF9.7650607284255226
aF9.2816571754276396
aF8.7107438958405794
aF8.627794722679079
aF7.7869161560815732
aF7.5720875472386187
aF5.4984998772880731
aF5.2076383759640885
aF4.5207760871401446
aF4.2023891718567272
aF4.0573113323336178
aF3.1606902086331754
aF2.7004133482564114
aF2.3899637097039803
aF2.3218294905769401
aF1.9765210019905606
aF1.4673657234202591
aF1.1813575677349712
aF1.1310361864489711
aF0.84638024181982774
aF0.77298688559229189
aF0.70877944672411652
aF0.60390755159021337
aF0.3406474112578321
aF0.31611065978709141
aF0.22198307207407975
aF0.20332691778459636
aF0.13940887782033978
aF0.12300864630832195
aF0.11565376601473484
aF0.00030456636377789223
aF0.0010830113673409893
aF0.012318688829058028
aF0.088694962243836509
aF0.033453617942170263
aF0.038207798254748362
aF0.039937631687230878
aF0.050635901081281263
aF0.055362404581502399
aF0.080647932870203054
aF0.063974504394774312
aF0.072609504335835531
aF0.072107689050872156
aaI293
aI478
aI239
a.