(lp1
I6536
a(lp2
(I0
I3
tp3
a(I0
I3
tp4
a(I0
I3
tp5
a(I0
I3
tp6
a(I0
I3
tp7
a(I0
I3
tp8
a(I0
I3
tp9
a(I0
I3
tp10
a(I0
I3
tp11
a(I0
I3
tp12
a(I0
I3
tp13
a(I0
I3
tp14
a(I0
I3
tp15
a(I0
I3
tp16
a(I0
I3
tp17
a(I0
I3
tp18
a(I0
I3
tp19
a(I0
I3
tp20
a(I0
I3
tp21
a(I0
I2
tp22
a(I0
I1
tp23
a(I0
I2
tp24
a(I0
I1
tp25
a(I0
I2
tp26
a(I0
I2
tp27
a(I0
I2
tp28
a(I0
I2
tp29
a(I0
I2
tp30
a(I0
I2
tp31
a(I0
I2
tp32
a(I0
I2
tp33
a(I0
I1
tp34
a(I0
I2
tp35
a(I0
I2
tp36
aa(lp37
F0.22296490404545188
aF0.039740894814319097
aF7.701723801267768e-05
aF0.0013863102842204267
aF0.30545036595656727
aF0.0057762928509179651
aF0.22974242099053116
aF0.0028496378064529759
aF0.044669998047102644
aF0.35959348427917814
aF0.60019533582943452
aF0.011937671891897317
aF0.0065464652310408544
aF0.036121084627743771
aF0.001694379236269361
aF0.046518411759396749
aF0.37330255264535539
aF0.12130214986928728
aF0.0053141894228430075
aF0.0242604299738578
aF0.040665101670465553
aF0.10774711597913253
aF0.96448687162736113
aF0.63862693759754563
aF0.38385391425303333
aF0.23790624821982931
aF0.0074706720871882404
aF0.34896510543348747
aF0.08379475495732347
aF0.07054779001921721
aa(lp38
F18.727414835766268
aF14.205698463410712
aF13.425645759715898
aF11.74543072348491
aF10.764628008178443
aF-2.9002242320116287
aF9.7121433493892813
aF8.9178066611181848
aF8.4162474804910214
aF7.9833169985359742
aF6.9869116803161626
aF6.3897074924393005
aF5.6944468195400271
aF5.1855717693842811
aF4.6983728371568878
aF4.0664564023347793
aF3.8432557778123346
aF3.5887017805906045
aF2.704952685804598
aF2.2619235327721152
aF0.024863772769169571
aF0.14716271817539175
aF0.33549399302069927
aF1.9425913125863594
aF1.752832479251587
aF0.61085063082871216
aF0.83548162017022076
aF1.3808183654378527
aF1.0740431290223931
aF1.2114672454116162
aa(lp39
F20.825459308635917
aF15.041624154172167
aF13.870553156837223
aF12.08552957635111
aF10.942900153658735
aF9.8711675000316053
aF9.0671393935775306
aF8.4961613132208189
aF8.1891142922323237
aF7.3240275386463738
aF6.409783966654075
aF5.714441056083623
aF5.6590233876031855
aF5.0126846310551834
aF4.4237412865944359
aF3.9322084369985943
aF3.6912742778599013
aF2.7721883637099287
aF2.2832400690033268
aF1.9567841249034279
aF1.8389424884873453
aF0.023522859034654002
aF0.14696141900643439
aF0.29754176094522244
aF0.53706764310110067
aF0.83516723279250715
aF0.87867540930857768
aF1.4150638502883073
aF1.0835203701546536
aF1.2541621842276831
aaI179
aI290
aI145
a.