(lp1
I2623
a(lp2
(I0
I3
tp3
a(I0
I3
tp4
a(I0
I3
tp5
a(I0
I3
tp6
a(I0
I3
tp7
a(I0
I3
tp8
a(I0
I3
tp9
a(I0
I3
tp10
a(I0
I3
tp11
a(I0
I3
tp12
a(I0
I3
tp13
a(I0
I3
tp14
a(I0
I3
tp15
a(I0
I3
tp16
a(I0
I3
tp17
a(I0
I2
tp18
a(I0
I1
tp19
a(I0
I2
tp20
a(I0
I2
tp21
a(I0
I2
tp22
a(I0
I1
tp23
a(I0
I0
tp24
a(I0
I2
tp25
a(I0
I2
tp26
a(I0
I2
tp27
a(I0
I2
tp28
a(I0
I0
tp29
a(I0
I2
tp30
a(I0
I2
tp31
a(I0
I2
tp32
a(I0
I2
tp33
a(I0
I2
tp34
a(I0
I1
tp35
a(I0
I2
tp36
a(I0
I2
tp37
a(I0
I2
tp38
aa(lp39
F0.0040841216006768377
aF0.13868470493436938
aF0.00076942758113756476
aF0.44147545493533835
aF0.53544157600255193
aF1.2541949986131966
aF0.11425568700431099
aF0.53514550026932817
aF0.0041610643587837171
aF0.0034634500185550809
aF0.0020292370073168586
aF0.25541179332929387
aF0.00055398785841642706
aF0.0051920973175194618
aF0.0280933398424561
aF0.0042072300136528629
aF0.0021215683170505706
aF0.0032828910128477329
aF0.003622465051989876
aF0.53381777603532488
aF0.00053859930679744927
aF0.0041918414620316646
aF0.020700679642895903
aF0.44847902415631724
aF0.48427710402523227
aF0.00053859930679234225
aF0.64007080065375299
aF0.0036840192584794984
aF0.097809634114072175
aF1.5388551623640723e-05
aa(lp40
F19.148806661367484
aF18.892792102393159
aF15.592858429322812
aF13.877120977442493
aF13.665829531273268
aF-4.6940900783615458
aF11.655373741249509
aF10.686747141379392
aF8.7937300405336032
aF8.3797711730874269
aF8.1859185764905362
aF7.5586428143872482
aF5.7563880234666192
aF5.4732580523941152
aF4.9094542746048244
aF4.5805006471243752
aF4.2456975903993461
aF3.1471151756536542
aF2.660950225138107
aF2.4126813259314535
aF1.9469795351844357
aF1.7381751173006184
aF0.71708364663050961
aF0.034646059381907832
aF0.067925738100854574
aF0.080556349710403694
aF0.44866776871834307
aF0.3883584392815016
aF0.33327465125919525
aF0.33963738647159625
aa(lp41
F20.729610881044415
aF19.076646476787175
aF16.474461575709078
aF14.039824561029235
aF13.854357274384817
aF12.511311337700171
aF11.160010335424174
aF8.9830417162002973
aF8.3742728034223468
aF8.4469401086169604
aF8.0179610744229528
aF7.4431675245294269
aF5.7469932729665469
aF5.2585202273276925
aF4.6152643001566913
aF4.2476287979485283
aF3.7604693666270803
aF2.6620560458142917
aF2.49407609317708
aF2.2391110486692822
aF1.7490813248634756
aF1.1220199801436834
aF0.68232958616027173
aF0.026624402425365873
aF0.067259016619586207
aF0.080543887028129188
aF0.43174596526793019
aF0.3808085776024841
aF0.33956633223600946
aF0.32817569523195217
aaI176
aI284
aI142
a.