(lp1
I3394
a(lp2
(I0
I3
tp3
a(I0
I3
tp4
a(I0
I3
tp5
a(I0
I3
tp6
a(I0
I3
tp7
a(I0
I3
tp8
a(I0
I3
tp9
a(I0
I3
tp10
a(I0
I3
tp11
a(I0
I3
tp12
a(I0
I3
tp13
a(I0
I2
tp14
a(I0
I2
tp15
a(I1
I2
tp16
aa(lp17
F0.0078717609189079014
aF0.85408605970157403
aF0.73207376545849112
aF1.184700018295731
aF0.95051513095819939
aF0.27157575170234372
aF0.93870748957983996
aF0.33848571951306572
aF0.027551163216181673
aF1.3224558343766295
aa(lp18
F36.998335490295609
aF-11.190167627371656
aF15.672590708229395
aF11.946412539075251
aF1.1734691102483277
aF0.35158236549222188
aF8.3140961302733771
aF5.7455031059439818
aF4.3689668110862598
aF3.9106974598973099
aa(lp19
F41.451426138648451
aF0.34063324135959627
aF0.96332534874919118
aF2.5337583992122621
aF3.9463378560883555
aF5.3786664676697855
aF7.6690017036268321
aF9.9798552044731323
aF16.251306520779256
aF14.343560533727707
aaI57
aI86
aI43
a.