(lp1
I9912
a(lp2
(I0
I3
tp3
a(I0
I3
tp4
a(I0
I3
tp5
a(I0
I3
tp6
a(I0
I3
tp7
a(I0
I3
tp8
a(I0
I3
tp9
a(I0
I3
tp10
a(I0
I3
tp11
a(I0
I3
tp12
a(I0
I3
tp13
a(I0
I3
tp14
a(I0
I3
tp15
a(I0
I3
tp16
a(I0
I3
tp17
a(I0
I3
tp18
a(I0
I3
tp19
a(I0
I3
tp20
a(I0
I3
tp21
a(I0
I2
tp22
a(I0
I2
tp23
a(I0
I2
tp24
a(I0
I1
tp25
a(I0
I2
tp26
a(I0
I2
tp27
a(I0
I2
tp28
a(I0
I2
tp29
a(I0
I1
tp30
a(I0
I2
tp31
a(I0
I2
tp32
a(I0
I0
tp33
a(I0
I2
tp34
a(I0
I2
tp35
a(I0
I2
tp36
a(I0
I2
tp37
aa(lp38
F0.068910991845771374
aF0.50318070076971133
aF0.14199205385394514
aF0.40999477535284701
aF0.16724543964191868
aF0.00018637185083369978
aF1.4001418258697309
aF0.0071520197757450887
aF0.00088526629145890823
aF0.0066162007045970084
aF0.19997699594458895
aF6.9889444062831707e-05
aF0.0033313968336519117
aF0.52214403659203945
aF0.68307612978696508
aF0.43182357838174612
aF0.012556803449924825
aF0.42655857359569338
aF0.00055911555250193895
aF0.0051019294165732809
aF0.16342481669982556
aF0.0089458488400181307
aF0.0025859094303177788
aF0.09223076968134114
aF0.005218411823344038
aF0.036109546099034419
aF0.01472337621586417
aF0.40514910723116893
aF0.018916742859622415
aF0.026441506337036458
aa(lp39
F19.860105037165535
aF15.949549250966049
aF14.422660603672929
aF12.487909020310402
aF-4.7182908461866973
aF10.661264325380522
aF9.9100501005924002
aF8.7170957910543709
aF8.5672402807140919
aF7.1002119812555637
aF6.684716937419136
aF6.1168517009297307
aF4.6737197208170143
aF4.294169899167767
aF4.0581841005154562
aF3.7533447501138846
aF3.4887491066283349
aF3.1766499835256607
aF2.8379959891289266
aF2.4548804807286762
aF2.0747244428956666
aF1.4833496572370775
aF1.2021020119193104
aF0.91565394304725412
aF0.033094384449590383
aF0.6997611250095106
aF0.57166181895859802
aF0.12941999632547507
aF0.19313781746588302
aF0.30847690320959748
aa(lp40
F25.09459286916081
aF16.565075224697871
aF14.513549292419786
aF12.566189233095573
aF10.664413472709059
aF9.9908952058189584
aF8.7177894237559865
aF8.5739823756125464
aF7.2100231128413137
aF7.0787863040955621
aF6.1695888897344906
aF5.4889396627477263
aF4.4898400591049352
aF4.2699198042873867
aF4.0090549787446941
aF3.7190297693886016
aF3.4544356827888612
aF2.8389469973438914
aF2.6287106784016592
aF2.0767803092449522
aF1.875973336964599
aF1.4832691217241207
aF1.0893308219876179
aF0.89475506256588722
aF0.67915927972318713
aF0.49611296788880416
aF0.030713846151460143
aF0.14762915803831714
aF0.12505032993991427
aF0.30410164957925173
aaI174
aI280
aI140
a.