(lp1
I7098
a(lp2
(I0
I3
tp3
a(I0
I3
tp4
a(I0
I3
tp5
a(I0
I3
tp6
a(I0
I3
tp7
a(I0
I3
tp8
a(I0
I3
tp9
a(I0
I3
tp10
a(I0
I3
tp11
a(I0
I3
tp12
a(I0
I3
tp13
a(I0
I3
tp14
a(I0
I3
tp15
a(I0
I3
tp16
a(I0
I3
tp17
a(I0
I3
tp18
a(I0
I2
tp19
a(I0
I2
tp20
a(I0
I1
tp21
a(I0
I1
tp22
a(I0
I1
tp23
a(I0
I2
tp24
a(I0
I1
tp25
a(I0
I2
tp26
a(I0
I1
tp27
a(I0
I0
tp28
a(I0
I2
tp29
a(I0
I2
tp30
a(I0
I1
tp31
a(I0
I1
tp32
a(I0
I2
tp33
a(I0
I1
tp34
a(I0
I2
tp35
a(I0
I2
tp36
a(I0
I2
tp37
aa(lp38
F0.46790299668333568
aF0.00015034328472984804
aF0.24697161229487255
aF1.6649400846581048
aF1.5419824074491828e-05
aF0.0033769414723927582
aF0.0051309464609081701
aF1.5419824074880406e-05
aF9.2518944448727325e-05
aF3.8549560186673659e-05
aF0.00074015155559248313
aF0.086732655465024691
aF0.60836988409320403
aF5.7824340280954178e-05
aF0.0037315974261159929
aF0.0037470172501899708
aF0.00016190815278638304
aF0.099465575194835787
aF6.167929629885549e-05
aF0.010138534329215184
aF0.28725975764644118
aF0.0015227076273911511
aF0.42206756962083514
aF0.67372295347844346
aF0.13165831290710917
aF0.0055819763150963819
aF1.541982407360365e-05
aF0.30148840031151358
aF0.24748432144536081
aF0.63025446941143903
aa(lp39
F22.803918939063415
aF16.561299844431776
aF14.591108620555847
aF-7.0628884410764545
aF11.768564342191032
aF11.26782761867473
aF10.533720136676093
aF9.5731153679580228
aF8.5914681188987743
aF7.1456177317284375
aF6.7074145644073413
aF6.4279912202785274
aF4.7228032776697075
aF4.2214007274365208
aF3.7811425630993352
aF3.182417400001929
aF1.9603250837181956
aF1.1371272813806501
aF0.61564114879050702
aF0.48759115843771561
aF0.45226109524626773
aF0.35519085161755715
aF0.23029449113004413
aF0.18921561849719945
aF0.17072950346574525
aF0.018096426106070852
aF0.052292006992527937
aF0.092062054567481094
aF0.076594174029100529
aF0.078543086967527376
aa(lp40
F28.833754994396074
aF16.679008684583678
aF14.622756407660416
aF12.678662697779103
aF11.322694989736759
aF10.548643012874738
aF9.6290976906061871
aF8.6980076727898137
aF8.0939197356872459
aF6.7655631793110738
aF6.6284289062041424
aF5.0188957071596114
aF4.3179457319151062
aF3.7962292235213719
aF3.4228477961398136
aF3.1818879341034565
aF1.6186496659870147
aF1.0186506288011259
aF0.61507886799805667
aF0.48673853668425154
aF0.38187651874658957
aF0.35421346307233509
aF0.22744612539507997
aF0.18893379567962004
aF0.17067509809768289
aF0.016937131548712146
aF0.052060120702055297
aF0.092054486474372213
aF0.076503204178605039
aF0.078509189689290437
aaI176
aI284
aI142
a.