(lp1
I5941
a(lp2
(I0
I3
tp3
a(I0
I3
tp4
a(I0
I3
tp5
a(I0
I3
tp6
a(I0
I3
tp7
a(I0
I3
tp8
a(I0
I3
tp9
a(I0
I3
tp10
a(I0
I3
tp11
a(I0
I3
tp12
a(I0
I3
tp13
a(I0
I3
tp14
a(I0
I3
tp15
a(I0
I3
tp16
a(I0
I3
tp17
a(I0
I2
tp18
a(I0
I2
tp19
a(I0
I1
tp20
a(I0
I2
tp21
a(I0
I1
tp22
a(I0
I2
tp23
a(I0
I2
tp24
a(I0
I1
tp25
a(I0
I2
tp26
a(I0
I1
tp27
a(I0
I2
tp28
a(I0
I2
tp29
a(I0
I1
tp30
a(I0
I2
tp31
a(I0
I2
tp32
a(I0
I2
tp33
a(I0
I2
tp34
a(I0
I2
tp35
a(I0
I2
tp36
aa(lp37
F0.00026016581152710216
aF0.034537011480122351
aF0.28308479348549087
aF0.02042301620481779
aF0.51962429725259429
aF0.52335605061167589
aF0.010666798272580102
aF0.014959534162764188
aF0.40033014248615828
aF1.3498540527412026
aF0.0033171140969612267
aF0.00065041452881642314
aF0.26032028497693654
aF0.039740327710648504
aF0.28329617820735536
aF0.41298070507162599
aF0.0039024871728956523
aF0.00026016581152608215
aF0.00013008290576332904
aF0.015024575615645741
aF0.0040976115315404238
aF0.034732135838766665
aF0.34401237447231453
aF0.037593959765556129
aF0.55207185205889642
aF0.019902684581764984
aF0.65890243841690077
aF0.10904199575597792
aF0.12407470155323387
aF0.007219601269855741
aa(lp38
F19.902613440199048
aF-5.2674890429853543
aF14.010868638781711
aF13.343538352910537
aF12.670245900465178
aF11.146241669999283
aF10.380984478320142
aF8.7512328681314724
aF8.2180944415638102
aF7.6378627751640487
aF6.7218892472080185
aF6.1914968121400973
aF5.7866638601637108
aF5.1643785954990031
aF4.8309675659382831
aF4.242332641356712
aF3.9832364553671571
aF3.0015045990562288
aF2.3688626367771781
aF2.2016329375254835
aF1.412393972608851
aF1.092197414630353
aF0.7818664855541031
aF0.55294077568374811
aF0.0055506174703397783
aF0.087520868765755017
aF0.17976248953317667
aF0.35824078907375373
aF0.31451772845389031
aF0.25088135074683837
aa(lp39
F24.557107618432891
aF14.072046066831101
aF13.343763075892841
aF12.725701884091512
aF11.497629896696965
aF10.413963009308235
aF8.9606180412758309
aF8.5500865548432134
aF8.1528935379489251
aF7.0467772010812251
aF6.2879313592464499
aF6.1371603857185022
aF5.4017074816839488
aF4.8923524338983162
aF4.3978219017273821
aF4.0910005044905651
aF3.5196620959423131
aF2.9161665314354015
aF2.2828306310332693
aF1.6457128880309715
aF1.3883165441344743
aF1.0399049500518798
aF0.65668586598765954
aF0.0055213884607484666
aF0.086832236034481716
aF0.17971410258649684
aF0.43899435517507052
aF0.24829578960383522
aF0.31447745758749401
aF0.33704964081824168
aaI175
aI282
aI141
a.