(lp1
I2354
a(lp2
(I0
I3
tp3
a(I0
I3
tp4
a(I0
I3
tp5
a(I0
I3
tp6
a(I0
I3
tp7
a(I0
I3
tp8
a(I0
I3
tp9
a(I0
I3
tp10
a(I0
I3
tp11
a(I0
I3
tp12
a(I0
I3
tp13
a(I0
I3
tp14
a(I0
I3
tp15
a(I0
I3
tp16
a(I0
I3
tp17
a(I0
I3
tp18
a(I0
I2
tp19
a(I0
I1
tp20
a(I0
I2
tp21
a(I0
I1
tp22
a(I0
I2
tp23
a(I0
I1
tp24
a(I0
I2
tp25
a(I0
I2
tp26
a(I0
I2
tp27
a(I0
I2
tp28
a(I0
I1
tp29
a(I0
I2
tp30
a(I0
I1
tp31
a(I0
I2
tp32
a(I0
I2
tp33
a(I0
I2
tp34
a(I0
I2
tp35
a(I0
I2
tp36
aa(lp37
F0.023737787826763057
aF0.64495286154109355
aF0.0065393354894661138
aF0.10683094411291094
aF0.0066265266293230596
aF0.16740698853033975
aF0.22759067281839096
aF0.7849818321555353
aF0.0064085487796767815
aF0.00019618006468391513
aF0.00078472025873477236
aF0.43031007299184987
aF0.0014168560227121318
aF0.00076292247377063305
aF0.0065611332744306416
aF0.0019182050769099845
aF0.0041197813583639942
aF0.0077818092324637433
aF0.078363036948769338
aF0.50729984948782936
aF0.00076292247377102163
aF0.065829310593960244
aF0.028598693873937542
aF0.57563590535275022
aF0.62492069715835896
aF0.58023523798034415
aF0.03147600148929619
aF0.070036283092181684
aF0.014233953582073244
aF0.0085229339212709414
aa(lp38
F20.223541520604094
aF17.943818638540051
aF15.490324915385171
aF15.029496041474603
aF12.807691207296299
aF11.614681569684487
aF-3.2836761762523641
aF10.379113212199282
aF9.6192804360554121
aF8.9340487676923459
aF8.4861090395626171
aF7.414560418550117
aF6.3115537608822709
aF5.967361259969965
aF5.4413140892222644
aF4.5457946652377803
aF3.9929025217860796
aF3.5283784348026281
aF2.8570739101224327
aF2.3817451269911847
aF2.3144641770861636
aF1.7011824411800733
aF1.2810283156166049
aF0.83433587109649365
aF0.024216138380288032
aF0.10042212216427894
aF0.25286704339382138
aF0.45521497127328892
aF0.42763954600252357
aF0.40393454480899771
aa(lp39
F22.710402153126815
aF18.209718328399983
aF15.780024683549685
aF15.296716043444475
aF13.211974047106777
aF11.621908652500883
aF10.493631861778438
aF10.372754443312759
aF8.9432650901176718
aF8.4965782574503415
aF7.6798335531520339
aF6.3137403099087415
aF6.0270572361464438
aF5.5669864785305849
aF4.5646779922800826
aF4.0151578320280326
aF3.911526927769585
aF3.4571846148870629
aF2.4140539865068242
aF2.3149567403512794
aF1.7603182125635553
aF1.3198519675083871
aF1.1716473590246006
aF0.77561780587014295
aF0.020457480036586883
aF0.092430945245994017
aF0.25270130869662544
aF0.38610433588166282
aF0.44786749148310467
aF0.42228862950926854
aaI176
aI284
aI142
a.