(lp1
I6645
a(lp2
(I0
I3
tp3
a(I0
I3
tp4
a(I0
I3
tp5
a(I0
I3
tp6
a(I0
I3
tp7
a(I0
I3
tp8
a(I0
I3
tp9
a(I0
I3
tp10
a(I0
I3
tp11
a(I0
I3
tp12
a(I0
I3
tp13
a(I0
I3
tp14
a(I0
I3
tp15
a(I0
I3
tp16
a(I0
I3
tp17
a(I0
I3
tp18
a(I0
I3
tp19
a(I0
I3
tp20
a(I0
I3
tp21
a(I0
I2
tp22
a(I0
I2
tp23
a(I0
I2
tp24
a(I0
I2
tp25
a(I0
I2
tp26
a(I0
I0
tp27
a(I0
I1
tp28
a(I0
I2
tp29
a(I0
I2
tp30
a(I0
I2
tp31
a(I0
I1
tp32
a(I0
I2
tp33
a(I0
I2
tp34
a(I0
I2
tp35
a(I0
I2
tp36
a(I0
I2
tp37
aa(lp38
F0.0040005226975304434
aF0.0040748686945653034
aF0.002258702195594875
aF0.18323190518943383
aF0.50821761916069108
aF0.56224768743357778
aF0.0010390738156861312
aF0.00050626083694327306
aF0.00051334140808911854
aF0.41401699995183555
aF1.0620856720322536e-05
aF0.00052838762177570553
aF0.0012709625207203423
aF7.0805711460762005e-06
aF0.61600216660138718
aF3.1862570157067949e-05
aF1.4161142292218321e-05
aF0.56378704785430456
aF0.018034214709044982
aF0.10415763550504531
aF0.0027030080350128327
aF0.11124226322833519
aF0.42200071269877837
aF0.00012390999505540456
aF0.14478528893765752
aF0.13677495029296863
aF0.0063512723180254582
aF0.0016214507924554589
aF0.29947895212285197
aF0.14998375576596459
aa(lp39
F15.830175662973627
aF14.362978570349361
aF12.873766334992117
aF12.048653337201133
aF11.32042430463272
aF10.672886539756098
aF8.2835355090747136
aF7.9466341035539383
aF7.2414510462976844
aF-2.4113607339862386
aF6.0496227561312699
aF5.7868296824835568
aF4.7362158492345499
aF4.4369860461427315
aF3.801411299529474
aF3.1960646942409263
aF2.7377934615925392
aF2.6986993722503403
aF2.5634657498265749
aF1.9090933989992465
aF1.8048443170340984
aF1.2186216947018731
aF0.94080467719597283
aF0.66867650844281989
aF0.17312305521084351
aF0.12950238125432101
aF0.088277434448725794
aF0.061794078434211246
aF0.042384871199973181
aF0.051209069818610571
aa(lp40
F15.944613967504841
aF14.457216289016175
aF13.25280957220845
aF12.048895816493097
aF11.361420873503171
aF11.033739363046582
aF9.0349683454719774
aF8.0678776784688626
aF7.2436248403160457
aF6.2548953882835496
aF5.8302133528787285
aF5.1981582807051563
aF4.6559854974248474
aF4.3971480048422098
aF3.2262462714074474
aF2.7499202674468193
aF2.7200782341589576
aF2.6421447801408724
aF2.347718677524294
aF1.8449613484909109
aF1.3683939843780935
aF1.0577603966403653
aF0.9009152351762636
aF0.42954690466564704
aF0.17204236909088827
aF0.10911524950764893
aF0.081539066221515188
aF0.06179367938288792
aF0.042379750712313397
aF0.04957775941437241
aaI170
aI272
aI136
a.