(lp1
I2315
a(lp2
(I0
I3
tp3
a(I0
I3
tp4
a(I0
I3
tp5
a(I0
I3
tp6
a(I0
I3
tp7
a(I0
I3
tp8
a(I0
I3
tp9
a(I0
I3
tp10
a(I0
I3
tp11
a(I1
I3
tp12
a(I0
I1
tp13
a(I1
I2
tp14
a(I0
I2
tp15
a(I0
I2
tp16
aa(lp17
F0.29669844155258629
aF0.0044954309326152853
aF0.67431463989223994
aF2.0499165052724133
aF0.13486292797844879
aF0.37761619833965687
aF0.24724870129382182
aF0.30119387248520102
aF1.1463348878168111
aF0.93954506491652046
aa(lp18
F36.860480073745109
aF-12.726694363155683
aF22.723690155868297
aF17.174936883801319
aF14.923821430934538
aF5.8155971326115576
aF5.198216266880296
aF0.11152240682773212
aF1.1601860052329738
aF2.4405575171844522
aa(lp19
F36.960435034974623
aF29.097160594716851
aF17.673243317563493
aF14.958496035810338
aF10.91956190584429
aF5.47810060786236
aF4.7889331099026933
aF0.08763447399540665
aF1.5791146109453476
aF1.15710726639828
aaI55
aI82
aI41
a.