(lp1
I3609
a(lp2
(I0
I3
tp3
a(I0
I3
tp4
a(I0
I3
tp5
a(I0
I3
tp6
a(I0
I3
tp7
a(I0
I3
tp8
a(I0
I3
tp9
a(I0
I3
tp10
a(I0
I3
tp11
a(I0
I3
tp12
a(I0
I3
tp13
a(I0
I3
tp14
a(I0
I3
tp15
a(I0
I3
tp16
a(I0
I3
tp17
a(I0
I2
tp18
a(I0
I2
tp19
a(I0
I2
tp20
a(I0
I2
tp21
a(I0
I2
tp22
a(I0
I1
tp23
a(I0
I1
tp24
a(I0
I1
tp25
a(I0
I0
tp26
a(I0
I2
tp27
a(I0
I1
tp28
a(I0
I2
tp29
a(I0
I2
tp30
a(I0
I1
tp31
a(I0
I1
tp32
a(I0
I0
tp33
a(I0
I2
tp34
a(I0
I2
tp35
a(I0
I2
tp36
a(I0
I2
tp37
a(I0
I2
tp38
aa(lp39
F0.048995823025750562
aF0.95195006987134723
aF0.0042888186058287654
aF0.088044281431698623
aF0.048659004810633857
aF6.7363643021067787e-05
aF0.0035291563085029856
aF0.0019460607984563283
aF1.2813388236482215
aF0.58875824002528854
aF0.10364021226650799
aF0.00015718183373015712
aF0.00044909095349288108
aF0.00013472728604696504
aF0.11955978798179824
aF0.53902141692628125
aF1.1155989131210651
aF0.0062648188011840134
aF8.9818190697984733e-05
aF0.010374001025617474
aF0.0075222734709558883
aF0.30968743304123936
aF0.0045807277255973666
aF0.012888910365160801
aF0.0034130912465233365
aF0.076096266513094979
aF0.09687420796122885
aF0.33486466946976118
aF0.017065456232617012
aF0.0040193640337348041
aa(lp40
F21.5947472249483
aF-7.2818089374277104
aF13.54058735272481
aF11.017080530214749
aF10.239966810624932
aF8.7690663943192817
aF8.6179057314083689
aF7.7570051701149074
aF6.7834852708464748
aF6.2378573952119307
aF5.9145161719552233
aF5.5191759240136671
aF4.8356829734700693
aF4.2734366388612477
aF3.3416361196855591
aF3.0719831392122248
aF2.6925568464305232
aF2.3366348594445006
aF1.964971092030986
aF1.625437974850714
aF1.4169827868484439
aF0.76213419931750681
aF0.57775384955645337
aF0.36745881242857997
aF0.0037123814366134969
aF0.26278025377610537
aF0.097462781888781047
aF0.11084925639882355
aF0.16071681400265614
aF0.21134964694061789
aa(lp41
F22.548483593534563
aF16.65217103884348
aF12.040839872048531
aF10.75858619705177
aF10.179213424552433
aF8.6244960602750336
aF8.0478365104956655
aF7.448202009732122
aF6.5525662374134717
aF6.0894347435786447
aF5.6672123915223143
aF5.264597068951633
aF4.4907140749485137
aF3.4067914724433308
aF3.2710465938850031
aF2.7862555321478344
aF2.5118643742991704
aF1.9999528479369086
aF1.6124283102357135
aF1.9443593919303055
aF1.2789459447755398
aF0.71837956900157685
aF0.54530837566495527
aF0.3292867541588238
aF0.0036899115531089893
aF0.24646043457034084
aF0.097139995237080071
aF0.10544384352147818
aF0.20591978635144895
aF0.16068198483766738
aaI171
aI274
aI137
a.