(lp1
I6627
a(lp2
(I0
I3
tp3
a(I1
I3
tp4
a(I0
I3
tp5
a(I0
I3
tp6
a(I0
I3
tp7
a(I0
I3
tp8
a(I0
I3
tp9
a(I0
I3
tp10
a(I0
I3
tp11
a(I0
I3
tp12
a(I1
I2
tp13
a(I0
I2
tp14
a(I2
I2
tp15
a(I0
I2
tp16
aa(lp17
F0.035839758767830077
aF0.083626103791602735
aF1.028899741293114
aF0.065706224407688252
aF0.69140867956271668
aF0.59882263607915731
aF0.72724843833054764
aF0.16725220758320702
aF0.59284934295118497
aF0.46741018726378103
aa(lp18
F30.71073743883537
aF28.361164093991089
aF-5.1219591860438536
aF19.245920789751022
aF0.79202016790074403
aF2.7637981677241967
aF4.0479036410973572
aF8.0166303769872211
aF10.272745263400788
aF11.960286619829114
aa(lp19
F31.135140533941986
aF28.424609432154586
aF20.290448741987831
aF0.41149785751800355
aF12.696777565349361
aF10.494897159434647
aF8.0328107411452301
aF6.1490947271553473
aF2.7104999012445701
aF2.8421528309398769
aaI57
aI86
aI43
a.