(lp1
I5128
a(lp2
(I0
I3
tp3
a(I0
I3
tp4
a(I0
I3
tp5
a(I0
I3
tp6
a(I0
I3
tp7
a(I0
I3
tp8
a(I0
I3
tp9
a(I0
I3
tp10
a(I0
I3
tp11
a(I0
I3
tp12
a(I0
I3
tp13
a(I0
I3
tp14
a(I0
I2
tp15
a(I0
I2
tp16
aa(lp17
F0.59623672780061465
aF0.33181870068903785
aF1.0187871044593115
aF0.12443201275838918
aF1.0602644420454415
aF1.2520971283812907
aF1.0110101036619121
aF1.1302574492220347
aF0.93583242928705213
aF0.48735871663702451
aa(lp18
F-15.405208035402012
aF25.620876345946208
aF22.561404773085076
aF18.201255334621298
aF15.487202552171663
aF11.091692275324181
aF0.49389124041505161
aF1.3609245293907881
aF1.9881687726309039
aF6.1574261492383995
aa(lp19
F27.619030519492334
aF24.036475209708904
aF22.443968882472856
aF15.488561081738705
aF11.379994949848504
aF9.5996036831373548
aF3.7740208881101291
aF0.49172327743830019
aF1.231480228557017
aF1.9881530861151544
aaI58
aI88
aI44
a.