(lp1
I6202
a(lp2
(I0
I3
tp3
a(I0
I3
tp4
a(I0
I3
tp5
a(I0
I3
tp6
a(I0
I3
tp7
a(I0
I3
tp8
a(I0
I3
tp9
a(I0
I3
tp10
a(I0
I3
tp11
a(I0
I3
tp12
a(I0
I3
tp13
a(I0
I3
tp14
a(I0
I3
tp15
a(I0
I3
tp16
a(I0
I3
tp17
a(I0
I3
tp18
a(I0
I3
tp19
a(I0
I3
tp20
a(I0
I3
tp21
a(I0
I2
tp22
a(I0
I2
tp23
a(I0
I1
tp24
a(I0
I1
tp25
a(I0
I1
tp26
a(I0
I1
tp27
a(I0
I2
tp28
a(I0
I2
tp29
a(I0
I2
tp30
a(I0
I2
tp31
a(I0
I2
tp32
a(I0
I2
tp33
a(I0
I2
tp34
a(I0
I2
tp35
a(I0
I1
tp36
aa(lp37
F0.54499172342366187
aF0.28752812057459742
aF0.49464652549679222
aF0.15753896813490728
aF0.0020207141553214569
aF0.0054994119417148823
aF0.28224612724453202
aF0.0068295022718016796
aF0.00025578660194058855
aF0.11254610485364402
aF0.00020462928154962867
aF2.557866019303745e-05
aF0.0016370342524170134
aF0.080932479520109624
aF0.56228289771480799
aF0.0083898005436324752
aF2.5578660188596558e-05
aF0.0054994119417162146
aF0.0041821109417217173
aF1.2709732503813242
aF0.4096822096636128
aF0.055326641999642545
aF0.00025578660194147673
aF0.29883548704660867
aF0.0060109851455933949
aF0.00025578660194009329
aF0.0032101218543487686
aF0.23530129245721554
aF0.016447078504748802
aF0.45414271707958598
aa(lp38
F19.483296607348095
aF14.080490430816251
aF13.245019962666049
aF12.181067200044673
aF11.217311985380091
aF-4.038765231208199
aF10.057348339296414
aF9.2535860855118539
aF8.2166193690798348
aF7.3063152419396618
aF6.3401226370067114
aF5.5820435005973978
aF4.8442633088760587
aF4.4396341449704622
aF3.7282639316464206
aF3.3431806190223123
aF3.0092097261328763
aF2.4285755803641651
aF2.4468559757368125
aF1.9040126457095006
aF1.3512984035833049
aF0.67236544314518065
aF0.035949075261541445
aF0.09457224348353295
aF0.084804855912484892
aF0.17051895899791999
aF0.45126866843024044
aF0.26948217650802764
aF0.35719831761196646
aF0.34258022364075635
aa(lp39
F21.210210865770385
aF15.822301395247905
aF13.285999461168675
aF12.731050055141944
aF11.217564275640882
aF11.032198388373098
aF9.7481019898036365
aF8.9939102658176431
aF7.3941017570552257
aF6.3484756433458003
aF5.6015389004484692
aF4.9583894641854105
aF4.4593558035270213
aF3.8045954866521026
aF3.4258503061606138
aF3.1503420765342018
aF2.9624864159661306
aF2.432472414243831
aF2.0987636595051375
aF1.4875969573377466
aF1.0853979204052098
aF0.66986800040492311
aF0.025861370434333231
aF0.092663457967486679
aF0.084527100843617239
aF0.16936179406998009
aF0.45099013219134565
aF0.26925269507926702
aF0.35084433017424638
aF0.34214283205976476
aaI177
aI286
aI143
a.