(lp1
I127
a(lp2
(I0
I3
tp3
a(I0
I3
tp4
a(I0
I3
tp5
a(I0
I3
tp6
a(I0
I3
tp7
a(I0
I3
tp8
a(I0
I3
tp9
a(I0
I3
tp10
a(I0
I3
tp11
a(I0
I2
tp12
a(I0
I2
tp13
a(I1
I2
tp14
a(I0
I2
tp15
a(I0
I2
tp16
aa(lp17
F0.098613423538559786
aF0.23338510237459248
aF0.36158255297472053
aF0.72973933418534342
aF1.3279941036526075
aF0.23009798825663996
aF1.2195193377601916
aF0.32871141179519858
aF0.18407839060531117
aF2.057733437837951
aa(lp18
F33.736874798161566
aF-12.991628315489667
aF16.062292227053518
aF13.05867076188369
aF12.540084537471238
aF9.2016000772532394
aF7.7174375574240397
aF0.59086628124258933
aF2.7278973679103631
aF1.680783953690006
aa(lp19
F37.788093134760103
aF21.701037396260826
aF15.969831697109582
aF12.888404108540508
aF12.343332328453648
aF7.8431983596226225
aF0.46500970289308247
aF1.0365880847041826
aF2.6952830277468651
aF5.2236951577927568
aaI62
aI96
aI48
a.