(lp1
I6949
a(lp2
(I0
I3
tp3
a(I0
I3
tp4
a(I0
I3
tp5
a(I0
I3
tp6
a(I0
I3
tp7
a(I0
I3
tp8
a(I0
I3
tp9
a(I0
I3
tp10
a(I0
I3
tp11
a(I0
I3
tp12
a(I0
I3
tp13
a(I0
I3
tp14
a(I0
I3
tp15
a(I0
I3
tp16
a(I0
I3
tp17
a(I0
I3
tp18
a(I0
I3
tp19
a(I0
I3
tp20
a(I0
I3
tp21
a(I0
I1
tp22
a(I0
I2
tp23
a(I0
I2
tp24
a(I0
I2
tp25
a(I0
I2
tp26
a(I0
I2
tp27
a(I0
I1
tp28
a(I0
I1
tp29
a(I0
I1
tp30
a(I0
I2
tp31
a(I0
I2
tp32
a(I0
I2
tp33
a(I0
I2
tp34
a(I0
I2
tp35
a(I0
I2
tp36
aa(lp37
F0.035388871907867936
aF0.54038559928685082
aF0.0046525230200552548
aF0.0060878758666680355
aF0.0027717158417353005
aF0.034052508912744694
aF0.036081800868300373
aF0.33641701029059579
aF0.018610092080221241
aF0.024945442575613597
aF0.23915948120114139
aF0.11250196621899766
aF0.1974352587978791
aF0.3279038830624087
aF0.45040382428195164
aF0.29399985892689928
aF0.34012912972148934
aF0.00039595940596193202
aF0.19966253045641597
aF0.21317464518487528
aF0.004751512871545488
aF0.24227766152309316
aF0.0045535331685647717
aF0.26163017748949369
aF0.0033656549506781985
aF0.0018808071783201763
aF0.51900379136489394
aF0.078845416712214789
aF0.52038964928576115
aF0.78810770264192354
aa(lp38
F15.885237291176811
aF-3.3292079594064714
aF13.859793571227243
aF12.822893741975122
aF12.462579478586074
aF11.200746161666022
aF11.069496918391661
aF9.415387428333176
aF8.4142501810937222
aF8.1908943134277425
aF0.0056460922669474911
aF0.066030318467502361
aF0.43616381954243744
aF0.40416764698680741
aF0.95379905774363793
aF1.1735460112355416
aF1.7068027365682061
aF6.7386971137573992
aF6.2365769845036336
aF6.0210130102108446
aF2.3256714868313959
aF5.3891741583821826
aF5.1461504252550938
aF2.7706894055610536
aF3.0236908751840965
aF3.414415409305783
aF4.4545245144457857
aF3.7671244159933499
aF3.9455282775146006
aF4.1235615309382068
aa(lp39
F17.204672739267366
aF15.586886322092601
aF13.21810712201496
aF12.515106864308727
aF11.227808703830094
aF11.077283368815257
aF9.4486216551819027
aF8.4201474806733287
aF8.1925403782939341
aF6.7668382529080517
aF0.0056375178617494026
aF0.061916558099502
aF0.28456862885414191
aF0.41252310279883891
aF0.90657276410151522
aF1.170798315214038
aF1.369191036103995
aF1.8246264488545587
aF6.311744055849176
aF6.0591087481333021
aF2.5659125268707919
aF5.4142713346997375
aF5.1681615243218504
aF3.0334301515364785
aF3.0216517875386786
aF3.607293976437024
aF3.8970341591538937
aF4.492899650832201
aF4.3586206401037133
aF4.1162732251905325
aaI180
aI292
aI146
a.