(lp1
I683
a(lp2
(I0
I3
tp3
a(I0
I3
tp4
a(I0
I3
tp5
a(I0
I3
tp6
a(I0
I3
tp7
a(I0
I3
tp8
a(I0
I3
tp9
a(I0
I3
tp10
a(I0
I2
tp11
a(I0
I1
tp12
a(I0
I1
tp13
a(I0
I2
tp14
a(I0
I1
tp15
a(I0
I2
tp16
a(I0
I1
tp17
a(I0
I1
tp18
a(I0
I2
tp19
a(I0
I2
tp20
a(I0
I1
tp21
a(I0
I2
tp22
a(I0
I0
tp23
a(I0
I0
tp24
a(I0
I2
tp25
a(I0
I1
tp26
a(I0
I2
tp27
a(I0
I2
tp28
a(I0
I1
tp29
a(I0
I1
tp30
a(I0
I1
tp31
a(I0
I1
tp32
a(I0
I2
tp33
a(I0
I2
tp34
a(I0
I2
tp35
a(I0
I2
tp36
a(I0
I2
tp37
a(I0
I2
tp38
aa(lp39
F0.10159787753302663
aF0.07167809506946643
aF0.37466036786534918
aF0.012226678671596769
aF0.00051753137234022972
aF0.70843575731562636
aF0.28706818309634774
aF0.0082805019574827554
aF0.0027817311263418354
aF0.014490878425601039
aF0.032863242143761573
aF0.00051753137234200608
aF0.0036227196063984834
aF0.030599042389759745
aF0.0028787682586561836
aF0.035386207583932183
aF0.0012291370093138743
aF0.00071160563697103552
aF0.0028464225478841421
aF0.13785741930778883
aF0.052464742871241477
aF0.0018760512247428807
aF0.0020054340678288263
aF0.90849397843685276
aF0.63911889913247455
aF0.00071160563697159063
aF0.23495924304359139
aF0.00071160563697159063
aF2.8253331444619376
aF0.79518695360456915
aa(lp40
F44.39847701303384
aF19.722076590302532
aF-11.159643386675883
aF16.178981335208139
aF15.469833014700669
aF14.630079217158164
aF11.207605570700666
aF7.9574240402908334
aF7.2883923214738893
aF6.5732250561205854
aF5.9275436155724481
aF4.5968435205877407
aF3.5881675872082655
aF3.2453685225520088
aF2.6039762260477031
aF2.0198568211738981
aF1.8629942478924901
aF1.44296556903255
aF0.020874024970951061
aF0.042367664711881019
aF1.1963784244647446
aF1.0338798352171601
aF0.8949051108896654
aF0.79990508978628516
aF0.64828398181382441
aF0.22029806761333859
aF0.31285092623176514
aF0.3808694459239127
aF0.43447840386893821
aF0.4112468387840032
aa(lp41
F57.247944512484224
aF26.598851722846465
aF19.721869065098065
aF16.151238179254889
aF15.344364578807658
aF11.260918499097901
aF9.9963785517661581
aF7.8956641105489451
aF7.2468675312985473
aF6.3723300238539924
aF4.8405569670987356
aF4.086607155242068
aF3.58739015820426
aF2.6317271130353617
aF2.3616443283473854
aF2.0195800300158147
aF1.7319444954212284
aF1.4408197981056137
aF0.020873972241136466
aF0.034855849614691452
aF1.1537496708035531
aF1.0233857839628433
aF0.8628835417818691
aF0.78118457956415621
aF0.21245689511967425
aF0.48412939831720331
aF0.3118648044082184
aF0.42673536163072229
aF0.40594990161981037
aF0.37370420156929657
aaI178
aI288
aI144
a.