(lp1
I8782
a(lp2
(I0
I3
tp3
a(I1
I3
tp4
a(I0
I3
tp5
a(I0
I3
tp6
a(I0
I3
tp7
a(I0
I3
tp8
a(I0
I3
tp9
a(I0
I3
tp10
a(I0
I3
tp11
a(I0
I3
tp12
a(I0
I3
tp13
a(I0
I2
tp14
a(I1
I2
tp15
a(I0
I2
tp16
aa(lp17
F0.49502026593400494
aF0.6866947796794951
aF0.67502763536455224
aF0.6050247694748947
aF1.7067365397859293
aF0.79669928322038519
aF0.061669191378983745
aF1.3250542471970834
aF0.87170235381644634
aF0.36001473886109442
aa(lp18
F-17.390442551683961
aF33.183783162326911
aF0.19789753158811368
aF1.4722649889017385
aF3.815101167329316
aF10.15302321892641
aF18.502052320950771
aF17.262740826141105
aF12.942927039654261
aF14.086145024565864
aa(lp19
F34.023792012377783
aF0.19732456917184196
aF1.3680951065831362
aF5.9127216973523335
aF3.569426096359841
aF20.013865383318212
aF13.410122084464225
aF12.451871144815996
aF17.264652192071221
aF16.953777968023903
aaI60
aI92
aI46
a.