(lp1
I1502
a(lp2
(I0
I3
tp3
a(I0
I3
tp4
a(I0
I3
tp5
a(I0
I3
tp6
a(I0
I3
tp7
a(I0
I3
tp8
a(I0
I3
tp9
a(I0
I3
tp10
a(I0
I3
tp11
a(I0
I3
tp12
a(I0
I3
tp13
a(I0
I0
tp14
a(I0
I2
tp15
a(I0
I2
tp16
a(I0
I2
tp17
aa(lp18
F2.2966172397100197
aF0.3147947985058181
aF0.69764010555332923
aF0.015876120697804912
aF0.6779523171108971
aF0.43064851628517559
aF0.63994054795117394
aF0.4864597247294421
aF0.016365692701703877
aF1.7180130699613789
aa(lp19
F-18.88216809236426
aF28.507858731324379
aF23.66323694028922
aF15.073836532213086
aF12.756334550443791
aF0.20285031084231561
aF0.96680824456871395
aF8.5045541830243643
aF6.6759953643254129
aF5.1900467131116983
aa(lp20
F36.284177615710433
aF24.907642955536467
aF17.403719425575144
aF14.637545985876534
aF12.178698634288033
aF8.2208085775921464
aF0.20274411141833651
aF0.96602721783954404
aF5.3324842540048802
aF2.9398306239001544
aaI56
aI84
aI42
a.