(lp1
I5358
a(lp2
(I0
I3
tp3
a(I0
I3
tp4
a(I0
I3
tp5
a(I0
I3
tp6
a(I0
I3
tp7
a(I0
I3
tp8
a(I0
I3
tp9
a(I0
I3
tp10
a(I0
I3
tp11
a(I0
I3
tp12
a(I0
I3
tp13
a(I0
I3
tp14
a(I0
I3
tp15
a(I0
I3
tp16
a(I0
I3
tp17
a(I0
I3
tp18
a(I0
I3
tp19
a(I0
I2
tp20
a(I0
I2
tp21
a(I0
I2
tp22
a(I0
I1
tp23
a(I0
I1
tp24
a(I0
I2
tp25
a(I0
I2
tp26
a(I0
I2
tp27
a(I0
I2
tp28
a(I0
I1
tp29
a(I0
I1
tp30
a(I0
I2
tp31
a(I0
I2
tp32
a(I0
I2
tp33
a(I0
I2
tp34
a(I0
I2
tp35
a(I0
I2
tp36
aa(lp37
F0.0065574533106171895
aF0.20698743928292659
aF0.31614256271430463
aF0.016617645656717528
aF0.00024437714200997718
aF0.00036656571301429963
aF0.16234788134233669
aF0.29158265994224752
aF0.0065167237869476757
aF4.0729523669791323e-05
aF0.066755689292544496
aF0.00012218857100632086
aF0.014173874236608874
aF0.011485725674494685
aF0.47690199263357602
aF0.39829401195351521
aF0.00048875428401995435
aF0.073313142603158576
aF0.0022808533254308205
aF0.75760986975634781
aF0.00016291809467405827
aF0.94117783292993495
aF0.51840537725169655
aF0.01177083234017573
aF1.0311900802371512
aF0.17045305655235499
aF0.55058170094975423
aF0.066104016913851149
aF0.23407257252243063
aF0.041992138902146259
aa(lp38
F19.144731206638859
aF18.515238141670249
aF16.341647968553975
aF-6.4654072530546953
aF12.781935975247244
aF12.140642847323269
aF11.424655781405754
aF9.384887398155124
aF8.0452062847180397
aF6.9974828420226247
aF6.5757308347792716
aF6.1110619528977459
aF5.51934010582473
aF4.8152894340909747
aF3.9664045886457164
aF3.7399974877903905
aF3.2859271116250466
aF3.0071802218888202
aF1.9061012092072669
aF1.9771732669163462
aF0.8801295218951789
aF0.58146512294554031
aF0.45376347483432483
aF0.0056245381683301338
aF0.055236684987333119
aF0.1087565965184375
aF0.15226204820669531
aF0.31160545884585911
aF0.24367041329282735
aF0.2699311989957125
aa(lp39
F21.003899392922939
aF19.078105538705302
aF16.691771414471141
aF13.978669487293125
aF12.201313141379194
aF11.52734126450458
aF9.7660526055955224
aF8.2847999805442196
aF7.9471881638828021
aF6.6173021801523575
aF6.1128949058562174
aF5.5303765703387837
aF4.6019943437642121
aF4.8164373508614764
aF3.872649919506495
aF3.4494985550544359
aF2.6644207709465881
aF3.0295243105637932
aF1.9096019023996618
aF1.5515351001090736
aF0.84769812839309422
aF0.58040416485524537
aF0.43924077280468532
aF0.0054351004066879151
aF0.052226014863924246
aF0.10873681117977543
aF0.15208531902034472
aF0.30796077564235774
aF0.24366995104812747
aF0.24849327084378833
aaI169
aI270
aI135
a.