(lp1
I1180
a(lp2
(I0
I3
tp3
a(I0
I3
tp4
a(I0
I3
tp5
a(I0
I3
tp6
a(I0
I3
tp7
a(I0
I3
tp8
a(I0
I3
tp9
a(I0
I3
tp10
a(I0
I3
tp11
a(I0
I3
tp12
a(I0
I3
tp13
a(I0
I3
tp14
a(I0
I3
tp15
a(I0
I3
tp16
a(I0
I3
tp17
a(I0
I3
tp18
a(I0
I3
tp19
a(I0
I3
tp20
a(I0
I3
tp21
a(I0
I3
tp22
a(I0
I3
tp23
a(I0
I3
tp24
a(I0
I2
tp25
a(I0
I1
tp26
a(I0
I2
tp27
a(I0
I2
tp28
a(I0
I2
tp29
a(I0
I2
tp30
a(I0
I2
tp31
a(I0
I1
tp32
a(I0
I0
tp33
a(I0
I1
tp34
a(I0
I2
tp35
a(I0
I1
tp36
a(I0
I1
tp37
a(I0
I2
tp38
a(I0
I2
tp39
a(I0
I1
tp40
a(I0
I2
tp41
a(I0
I2
tp42
a(I0
I2
tp43
a(I0
I2
tp44
a(I0
I1
tp45
a(I0
I0
tp46
a(I0
I2
tp47
a(I0
I2
tp48
a(I0
I2
tp49
a(I0
I1
tp50
a(I0
I0
tp51
a(I0
I2
tp52
a(I0
I2
tp53
a(I0
I1
tp54
a(I0
I1
tp55
a(I0
I1
tp56
a(I0
I1
tp57
a(I0
I2
tp58
a(I0
I2
tp59
aa(lp60
F2.7463358413304384e-05
aF0.21547743943363651
aF0.30169653937287189
aF6.8658396079612771e-07
aF1.7851182967376644e-05
aF2.7463358400758864e-06
aF0.012244376799436907
aF0.0042609804451276927
aF0.00059106801526484509
aF0.00097220288783395059
aF0.22924632662074873
aF6.8658396032775237e-07
aF0.014753881561754362
aF0.42718392574839825
aF0.2211367556154562
aF0.0024726715522067622
aF0.632064806517457
aF0.00024640286717658721
aF0.00091170272474050407
aF3.5015781977065785e-05
aF0.41405346245796282
aF4.8060877223341653e-06
aF0.30835021621744541
aF6.8658396019938284e-07
aF0.00087446564171551888
aF2.0597518810228088e-05
aF0.0011752701909273355
aF0.0061583754131588897
aF6.8658396079612771e-07
aF0.27774847776992528
aF3.4329198010940587e-06
aF6.865839581940425e-07
aF0.28328195546557655
aF0.42852039587517732
aF0.00058557534358349983
aF3.7762117818251895e-05
aF0.14476825987367903
aF3.4329198008720141e-06
aF0.36525562763060004
aF0.00059110840255627295
aF6.2479140390380578e-05
aF0.32108940089183591
aF0.19721217209551567
aF0.073864762204670864
aF1.02987594050169e-05
aF6.8658396124021692e-07
aF0.00053682788239783202
aF0.10142307351676383
aF6.2479140390259147e-05
aF0.175198330355674
aa(lp61
F16.99460810047675
aF14.000916265119393
aF12.676832799671605
aF11.210135829023262
aF10.876248801495818
aF10.117807136659565
aF9.4859463993493893
aF9.2238758974838237
aF8.8438615403337337
aF8.3538321524043635
aF-2.7451208389757893
aF7.43343876492938
aF6.9909030975715272
aF6.315120826275515
aF5.8908590106047791
aF5.3237333904228903
aF4.9205231348145002
aF4.3753218030617145
aF3.995165209426772
aF3.5299525512908612
aF3.195234050835642
aF2.88408125640701
aF2.3358955465739006
aF2.1953556499045113
aF1.9023056046485716
aF1.7007306008975949
aF1.5676255273048114
aF0.68907908674383656
aF0.48277491676885681
aF0.23334171158163966
aF0.2057192272923162
aF0.16251854476147773
aF0.1209619075318067
aF0.10708294350879508
aF0.098580728779376542
aF0.092125071026870287
aF0.066019290862822697
aF0.057625203318354211
aF0.034945643354649537
aF0.033590860857694659
aF0.032602089829615453
aF0.001000175061545741
aF0.004065294390811611
aF0.026436673914626826
aF0.01589906266302582
aF0.014949962271934894
aF0.012639082418457234
aF0.013198817913568132
aF0.013793193023838123
aF0.01405999683081461
aa(lp62
F17.016505774448788
aF14.409416141453619
aF13.32890409496377
aF11.231878533045945
aF10.880072705396207
aF10.830919177755513
aF9.4006945456551119
aF9.5161280706844504
aF8.8762080814441706
aF8.3962578699307748
aF7.4904446185335116
aF7.0188194034065479
aF6.327717686524962
aF5.9685652810724541
aF5.6724789442154764
aF4.9371797242162714
aF4.3968835059395444
aF4.0192932299579445
aF3.6020791415106492
aF3.3556988996133881
aF2.8925770537275777
aF2.439084944326031
aF2.218120898386188
aF2.1769433213841403
aF1.7035905713100679
aF1.5704364517051537
aF1.0519278742208846
aF0.68512141115582648
aF0.4778697177020777
aF0.2146984411661986
aF0.19933166858653334
aF0.16101430976345352
aF0.11506163337230887
aF0.10659775467196582
aF0.094780602804539954
aF0.091980242398961645
aF0.065712381103861878
aF0.057579718426010458
aF0.034878353396395646
aF0.033472627823068549
aF0.032339827983202764
aF0.00099900321356436849
aF0.004028343968021676
aF0.026196746361520567
aF0.015889621614249033
aF0.01494334547277726
aF0.01257108308161411
aF0.013172671114678566
aF0.014044923741720842
aF0.013785512530266136
aaI288
aI468
aI234
a.