(lp1
I9522
a(lp2
(I0
I3
tp3
a(I0
I3
tp4
a(I0
I3
tp5
a(I0
I3
tp6
a(I0
I3
tp7
a(I0
I3
tp8
a(I0
I3
tp9
a(I0
I3
tp10
a(I0
I3
tp11
a(I0
I3
tp12
a(I0
I3
tp13
a(I0
I3
tp14
a(I0
I3
tp15
a(I0
I3
tp16
a(I0
I3
tp17
a(I0
I2
tp18
a(I0
I2
tp19
a(I0
I2
tp20
a(I0
I2
tp21
a(I0
I1
tp22
a(I0
I2
tp23
a(I0
I2
tp24
a(I0
I2
tp25
a(I0
I1
tp26
a(I0
I2
tp27
a(I0
I2
tp28
a(I0
I2
tp29
a(I0
I2
tp30
a(I0
I1
tp31
a(I0
I1
tp32
a(I0
I2
tp33
a(I0
I2
tp34
a(I0
I2
tp35
a(I0
I2
tp36
aa(lp37
F0.0097602090943578745
aF0.020520580958102719
aF0.32638070234790445
aF0.01062241837831146
aF0.48580319895098056
aF0.0028625348227282466
aF0.44069240921451303
aF0.31674120255330152
aF0.032884662090000398
aF0.0012760697402507404
aF0.000655279055803204
aF0.29290973794481651
aF0.00731153472792892
aF0.021072394899834257
aF0.00055181394173042797
aF0.013450464829680597
aF0.1574739036213379
aF0.001758906939269389
aF0.7058734965873722
aF0.54057073266773226
aF0.00013795348543255148
aF0.093704904980109971
aF1.2656542521015943
aF0.7687802859446492
aF0.79261175055313116
aF0.1690447522120003
aF0.013622906686471703
aF0.0020348139101310503
aF0.00041386045629798751
aF0.0087600463249710714
aa(lp38
F23.969502236363009
aF18.183540068609602
aF16.204417670821954
aF14.810625800218384
aF13.957589672560575
aF-6.1436808650378669
aF12.934187456995533
aF9.6819786865459498
aF8.5315192809661724
aF7.8214135505904041
aF7.2748396661905135
aF6.6005364667439261
aF5.384338433771986
aF4.6372662032996717
aF3.9683472599412788
aF3.6176991247483596
aF3.0946237880535707
aF2.5260517279700214
aF1.8658702471733046
aF1.4856332588506775
aF1.2184268477650508
aF1.0544747390990565
aF0.1045030220852541
aF0.085649898293058746
aF0.19370625699701055
aF0.56845989511450934
aF0.52534786898253349
aF0.32482228425351728
aF0.34913936594939388
aF0.40990322798719719
aa(lp39
F28.817122023734044
aF18.185082090032942
aF16.673880939952692
aF14.810631253013844
aF14.034581906263291
aF13.028756715680595
aF10.756381436427471
aF9.4137513943880951
aF7.8261609270872068
aF7.4588916648363419
aF6.9869934417811796
aF5.6831131024798109
aF5.153647713378283
aF4.3046546557253942
aF3.6311251015912562
aF3.159082070324315
aF2.8235393666388791
aF2.2694311877925712
aF1.8365178033550813
aF1.4176842911107834
aF1.1564363705154914
aF0.95860247538699295
aF0.097777492013258416
aF0.084497432865362987
aF0.56441198645552593
aF0.50749705084565011
aF0.19090402931981679
aF0.27603336887281993
aF0.39510339776728171
aF0.33562208613667238
aaI176
aI284
aI142
a.