(lp1
I822
a(lp2
(I0
I3
tp3
a(I0
I3
tp4
a(I0
I3
tp5
a(I0
I3
tp6
a(I0
I3
tp7
a(I0
I3
tp8
a(I0
I3
tp9
a(I0
I3
tp10
a(I0
I3
tp11
a(I0
I3
tp12
a(I0
I2
tp13
a(I0
I0
tp14
a(I0
I2
tp15
a(I1
I2
tp16
a(I1
I2
tp17
aa(lp18
F0.48818216716366458
aF0.18499534755675828
aF0.70272538273296137
aF0.51387596543543879
aF0.16315561902575176
aF0.10277519308708727
aF0.29804805995255279
aF1.3373622000457281
aF0.1040598830006747
aF2.1531402951744854
aa(lp19
F37.480908849555938
aF-10.950489976222526
aF24.620636007274875
aF15.717326924356389
aF12.900868635829422
aF11.38585969833183
aF8.4000421134295564
aF1.8594395223850837
aF1.603283190776587
aF4.8484242167058058
aa(lp20
F41.810311455212975
aF24.622674844465386
aF22.342410408406792
aF0.73389407186982936
aF1.6663718280190525
aF4.4780522782233341
aF7.5920970647751256
aF8.400351575572957
aF13.945510761581385
aF12.641948753433226
aaI59
aI90
aI45
a.