(lp1
I4618
a(lp2
(I0
I3
tp3
a(I0
I3
tp4
a(I0
I3
tp5
a(I0
I3
tp6
a(I0
I3
tp7
a(I0
I3
tp8
a(I0
I3
tp9
a(I0
I3
tp10
a(I0
I3
tp11
a(I0
I3
tp12
a(I0
I3
tp13
a(I0
I3
tp14
a(I0
I3
tp15
a(I2
I2
tp16
aa(lp17
F0.47156306591957059
aF0.90941368946302548
aF0.6701375740618134
aF0.13238300542816211
aF0.64176978718435018
aF0.94641515060754255
aF0.18254054164628539
aF0.096614926321795247
aF1.0298740018557317
aF1.8155383601576489
aa(lp18
F38.684607210551356
aF-14.712699323147721
aF16.489566299463505
aF0.5205125321713564
aF1.6429035883779641
aF11.542359016453524
aF9.7106556640670973
aF7.4608925481612953
aF5.6375732058221963
aF4.4605830604219205
aa(lp19
F42.851084808750805
aF18.478578849255541
aF14.555424663754209
aF9.799541096187415
aF0.51857706832815609
aF1.6318748711335243
aF7.5024027041415389
aF3.7121190916711981
aF5.315380837400876
aF5.964210608899112
aaI61
aI94
aI47
a.