(lp1
I5958
a(lp2
(I0
I3
tp3
a(I0
I3
tp4
a(I0
I3
tp5
a(I0
I3
tp6
a(I0
I3
tp7
a(I0
I3
tp8
a(I0
I3
tp9
a(I0
I3
tp10
a(I0
I3
tp11
a(I0
I3
tp12
a(I0
I3
tp13
a(I0
I3
tp14
a(I0
I3
tp15
a(I0
I3
tp16
a(I0
I3
tp17
a(I0
I3
tp18
a(I0
I3
tp19
a(I0
I3
tp20
a(I0
I3
tp21
a(I0
I2
tp22
a(I0
I1
tp23
a(I0
I2
tp24
a(I0
I2
tp25
a(I0
I1
tp26
a(I0
I1
tp27
a(I0
I1
tp28
a(I0
I2
tp29
a(I0
I2
tp30
a(I0
I1
tp31
a(I0
I2
tp32
a(I0
I2
tp33
a(I0
I2
tp34
a(I0
I2
tp35
a(I0
I2
tp36
aa(lp37
F0.001086555873511641
aF0.45717191155871484
aF0.017286116169499266
aF0.0050517792560654806
aF0.0040075567282755742
aF0.056021127504416818
aF0.00067733353153948128
aF0.62125595957417423
aF0.0090311137538590103
aF0.00067733353153931475
aF0.68637875640865276
aF0.3193486490056584
aF0.0027657785871195162
aF0.30736831216655441
aF0.0003386667657697684
aF0.00022577784384747446
aF0.00021166672860617464
aF0.46839024817484076
aF0.6924465359620271
aF0.0011853336801945225
aF0.56740794381677873
aF0.028575008361825249
aF0.29767750377520452
aF0.0093697805196302775
aF0.02850445278562308
aF0.010541003084582834
aF0.47483197228208557
aF0.15115826645524244
aF0.65107980163477441
aF0.64516371657023386
aa(lp38
F19.548226447849419
aF17.18634233591257
aF15.376594666138407
aF14.29738518727317
aF13.410440885092681
aF-4.8118843534665325
aF11.19044876692675
aF9.6794088134670151
aF9.1655411934683428
aF7.455395050742089
aF7.3676534288309732
aF5.4371490533673228
aF5.0588429934921528
aF5.0999427302151128
aF3.9227212910493705
aF3.0547108176899318
aF2.9478121470498597
aF2.6287558019825248
aF2.2474177966947959
aF1.4388972633207402
aF0.011558460841383577
aF0.83192318250105235
aF0.13115073590838752
aF0.19400774469147364
aF0.66510275497803795
aF0.60663520842511376
aF0.5474754673027854
aF0.39109127990077613
aF0.33500856615992802
aF0.36681919488448095
aa(lp39
F20.155172618693566
aF17.380770367144063
aF16.792098142500613
aF14.455838577938458
aF13.685720570745092
aF12.25187273388957
aF10.88242748799583
aF9.6608542480103381
aF7.9606953089972361
aF7.4286163779182477
aF6.0254469541065951
aF5.0618980885667035
aF5.1534397489519295
aF4.1355724559993581
aF3.3774751367731297
aF3.0077383984325037
aF2.7201213026844049
aF2.5882070712039278
aF1.6729518033387221
aF1.4383746657139713
aF0.011523147139570443
aF0.1302897980787342
aF0.17331769898139102
aF0.28099492547173865
aF0.35492147518496431
aF0.391027555141788
aF0.50970058453339184
aF0.60630006430209826
aF0.68853795616411728
aF0.66398979134858849
aaI172
aI276
aI138
a.