(lp1
I4450
a(lp2
(I0
I3
tp3
a(I0
I3
tp4
a(I0
I3
tp5
a(I0
I3
tp6
a(I0
I3
tp7
a(I0
I3
tp8
a(I0
I3
tp9
a(I0
I3
tp10
a(I0
I3
tp11
a(I0
I3
tp12
a(I0
I3
tp13
a(I0
I3
tp14
a(I0
I3
tp15
a(I0
I3
tp16
a(I0
I1
tp17
a(I0
I2
tp18
a(I0
I2
tp19
a(I0
I2
tp20
a(I0
I2
tp21
a(I0
I2
tp22
a(I0
I2
tp23
a(I0
I2
tp24
a(I0
I0
tp25
a(I0
I2
tp26
a(I0
I1
tp27
a(I0
I2
tp28
a(I0
I2
tp29
a(I0
I2
tp30
a(I0
I2
tp31
a(I0
I2
tp32
a(I0
I2
tp33
a(I0
I2
tp34
a(I0
I2
tp35
a(I0
I2
tp36
a(I0
I2
tp37
aa(lp38
F0.0053930924447700423
aF0.0034393074572953708
aF0.46923133666186989
aF0.00073468774322515973
aF1.5556044143784844
aF0.016647539851974938
aF0.0036169242743379522
aF0.17156977177221905
aF2.4220475051128787e-05
aF0.00473106612669838
aF0.005158961185942168
aF0.0038994964832712586
aF0.069892217506569931
aF0.95173953039773296
aF0.30280034234638187
aF0.014064022513162189
aF0.0019053440373741903
aF0.71217077491879388
aF0.027562900608458896
aF0.086967652417785146
aF0.039317904500056899
aF0.079988118857148849
aF0.14957758042557523
aF0.072976291329777787
aF0.27382054394742139
aF0.018891970540070524
aF0.01359575999550211
aF0.57287882289836345
aF0.0057321790954911744
aF8.0734916839686477e-06
aa(lp39
F23.76626490237043
aF17.553421783910377
aF-6.2782199031899903
aF15.633756637765538
aF13.931207168465138
aF13.299774034282388
aF12.627797954733042
aF10.615465976907551
aF9.5936297533529054
aF8.974392233121991
aF8.5102901677379723
aF7.4954370239717063
aF6.8591552285063839
aF6.0649726109088249
aF5.4312561789885017
aF4.9603716198377574
aF4.4019206482714086
aF3.522865559067669
aF0.56844103990096728
aF0.12177521324048876
aF0.036774831308557951
aF0.052504311569935243
aF0.079171669009470189
aF0.32951444892439874
aF2.8111638426562173
aF1.5649813507718779
aF1.7405250001700407
aF2.0410811555155686
aF2.3097636658222345
aF2.2697285025317089
aa(lp40
F30.665697293813672
aF17.947737852054864
aF15.661439307389029
aF13.981926581815653
aF13.431418608302543
aF12.758628274117637
aF10.787610626619621
aF9.612866955901584
aF9.5158952035993511
aF8.9713378218009687
aF7.4981818436298031
aF7.0874032735834707
aF6.0879990062102189
aF5.8861197550402133
aF5.2168664428702849
aF4.4918595772826322
aF3.6651361942089205
aF3.2099510970894549
aF2.5360373928624678
aF2.3057278823543625
aF2.080260967124878
aF1.8715547366047411
aF1.320801123676006
aF1.6426471532205646
aF0.56766009648637039
aF0.31152408741026671
aF0.12175595434865312
aF0.035005419867828444
aF0.049818949203762189
aF0.077889018903607221
aaI180
aI292
aI146
a.