(lp1
I6926
a(lp2
(I0
I3
tp3
a(I0
I3
tp4
a(I0
I3
tp5
a(I0
I3
tp6
a(I0
I3
tp7
a(I0
I3
tp8
a(I0
I3
tp9
a(I0
I3
tp10
a(I0
I3
tp11
a(I0
I3
tp12
a(I0
I3
tp13
a(I0
I3
tp14
a(I0
I3
tp15
a(I0
I3
tp16
a(I0
I3
tp17
a(I0
I3
tp18
a(I0
I3
tp19
a(I0
I3
tp20
a(I0
I2
tp21
a(I0
I2
tp22
a(I0
I2
tp23
a(I0
I2
tp24
a(I0
I1
tp25
a(I0
I2
tp26
a(I0
I2
tp27
a(I0
I1
tp28
a(I0
I2
tp29
a(I0
I2
tp30
a(I0
I2
tp31
a(I0
I2
tp32
a(I0
I1
tp33
a(I0
I1
tp34
a(I0
I2
tp35
a(I0
I2
tp36
aa(lp37
F0.0055233517901499551
aF0.0060331996477019922
aF0.050899811112293691
aF0.13022364028315425
aF0.15533364726760102
aF0.39360254603037159
aF0.015699065280464275
aF0.35096651894255926
aF0.019246756622599781
aF0.0023792900019110608
aF0.068786973448097477
aF0.0045673870572391362
aF0.00016994928585073281
aF0.26635301824960989
aF0.010196957151045904
aF0.71153517253568443
aF0.0065642911659858083
aF2.1243660731334879e-05
aF0.0041637575033441898
aF0.0020818787516736492
aF0.043974377713886459
aF0.21817239571092026
aF0.40762336211305816
aF0.5201297893462673
aF0.25859908208266896
aF8.4974642925672583e-05
aF0.097933275971503253
aF0.025917266092243096
aF0.017504776442628156
aF0.12943762483608801
aa(lp38
F16.016487392623553
aF12.630652269605699
aF12.077776304950332
aF11.567565030671565
aF-1.9718708770047904
aF10.292387854846382
aF9.44676237297403
aF8.0963220460440741
aF8.1124695144208019
aF0.077627163684786657
aF0.11633614298988505
aF0.15545336432966933
aF0.28187263690965714
aF0.62251611157877151
aF0.7435341161224831
aF1.1419211452018021
aF7.1094385431831935
aF2.082929375652149
aF2.255538603074922
aF6.6208996311334696
aF5.9681961328325803
aF5.8615483073743588
aF2.8901558462052273
aF3.1421130907276646
aF3.4910556451952095
aF3.7946762406331582
aF4.0379533484382746
aF4.4544325963175408
aF5.1312679051281371
aF5.3660103914988095
aa(lp39
F16.823805845044443
aF12.656617813441947
aF12.078075055539889
aF11.639989179969257
aF11.125015505721246
aF9.4703831963606042
aF8.2917166310174331
aF8.1087655922186812
aF7.1111357796152275
aF6.6767930542286376
aF5.9820307596732301
aF5.9383479381519644
aF5.4009541610351262
aF5.1315810471690915
aF4.6851619398228834
aF4.1310689161906904
aF3.8356022744167269
aF3.680303361759361
aF3.1500181400985752
aF3.0124081911923897
aF2.2757754725371315
aF2.1125201278894639
aF1.6394204558235754
aF0.78911919286402576
aF0.69607238874261768
aF0.51849542869722909
aF0.26851596488091661
aF0.077615181628058263
aF0.092347842268150418
aF0.1545172057469327
aaI182
aI296
aI148
a.