(lp1
I3345
a(lp2
(I0
I3
tp3
a(I0
I3
tp4
a(I0
I3
tp5
a(I0
I3
tp6
a(I0
I3
tp7
a(I0
I3
tp8
a(I0
I3
tp9
a(I0
I3
tp10
a(I0
I3
tp11
a(I0
I3
tp12
a(I0
I3
tp13
a(I0
I3
tp14
a(I0
I3
tp15
a(I0
I3
tp16
a(I0
I3
tp17
a(I0
I3
tp18
a(I0
I1
tp19
a(I0
I2
tp20
a(I0
I2
tp21
a(I0
I1
tp22
a(I0
I2
tp23
a(I0
I1
tp24
a(I0
I2
tp25
a(I0
I2
tp26
a(I0
I1
tp27
a(I0
I0
tp28
a(I0
I1
tp29
a(I0
I1
tp30
a(I0
I1
tp31
a(I0
I2
tp32
a(I0
I2
tp33
a(I0
I2
tp34
a(I0
I2
tp35
a(I0
I2
tp36
a(I0
I2
tp37
aa(lp38
F0.00044243010461730847
aF0.062722975599519781
aF0.78387270174995649
aF0.00011344361656773216
aF0.00045377446626471141
aF0.00013613233987996853
aF0.0023066868701817761
aF0.037368327296945392
aF0.00024957595644584107
aF0.0068633388022627528
aF0.0080771854995211889
aF0.79677124095354657
aF1.1344361656895341e-05
aF0.0081074371306067324
aF0.00035167521135689994
aF0.010323369107535285
aF0.00018150978650588456
aF0.0013613233987990192
aF0.00057856244448642458
aF0.39526024884036892
aF1.0928326100144428
aF0.39459093150262992
aF0.03494819681019673
aF0.0014634226537055817
aF0.15216192290040276
aF0.012758625409821922
aF0.33649645545901685
aF0.0026999580742803619
aF1.6326275892680706
aF3.4033084970186422e-05
aa(lp39
F23.994659950239111
aF21.385461089193484
aF17.57207425309954
aF-9.886088872432838
aF13.258694957424819
aF8.4719389098480828
aF7.3188160699633764
aF5.6535331610072097
aF5.4106665229794846
aF4.4832328375035519
aF3.5726429781335995
aF2.8306382778636388
aF2.7208872418365524
aF1.7983523775379513
aF1.4234443022721386
aF1.0666445337755623
aF0.9174678032722271
aF0.85300393263372365
aF0.77266215576283626
aF0.58062255261139439
aF0.47471608915275187
aF0.0021704608357972729
aF0.005823629383376671
aF0.057021700995300281
aF0.096077738638116431
aF0.36178445760485262
aF0.28628802842324935
aF0.18782561482919813
aF0.22113800816405249
aF0.23627633639368714
aa(lp40
F26.241251015666407
aF21.751852224519578
aF20.618273508887118
aF13.263676583108962
aF9.0731539051059666
aF8.2000829167931748
aF6.543075320053485
aF5.412223084633295
aF4.9707319955548481
aF4.4048009248897628
aF3.5648731798267992
aF2.7940878277039021
aF2.4923266523909646
aF1.7627146901789115
aF1.4062665323325267
aF1.0611195812047236
aF0.91636746240087652
aF0.77410114391718998
aF0.66173493742679057
aF0.58038075844269899
aF0.46995258184001276
aF0.0021433241276484884
aF0.0057858217052743988
aF0.056773077619190135
aF0.095809502854610817
aF0.35723638954242831
aF0.16681344036686907
aF0.28503250766894273
aF0.23322557730210955
aF0.22016874809999043
aaI169
aI270
aI135
a.