(lp1
I2827
a(lp2
(I0
I3
tp3
a(I0
I3
tp4
a(I0
I3
tp5
a(I0
I3
tp6
a(I0
I3
tp7
a(I0
I3
tp8
a(I0
I3
tp9
a(I0
I3
tp10
a(I0
I3
tp11
a(I0
I3
tp12
a(I0
I3
tp13
a(I0
I3
tp14
a(I0
I3
tp15
a(I0
I3
tp16
a(I0
I3
tp17
a(I0
I2
tp18
a(I0
I2
tp19
a(I0
I1
tp20
a(I0
I2
tp21
a(I0
I2
tp22
a(I0
I1
tp23
a(I0
I1
tp24
a(I0
I2
tp25
a(I0
I1
tp26
a(I0
I1
tp27
a(I0
I2
tp28
a(I0
I1
tp29
a(I0
I2
tp30
a(I0
I1
tp31
a(I0
I1
tp32
a(I0
I1
tp33
a(I0
I2
tp34
a(I0
I2
tp35
a(I0
I2
tp36
aa(lp37
F0.31103913617335399
aF0.00056456337819332791
aF0.68428609958137732
aF0.014925644310984865
aF1.1761737045840048e-05
aF0.29276139680434543
aF0.0035520445877992302
aF0.76966454879606205
aF0.19317476923846288
aF0.0020700657200443118
aF4.704694818080668e-05
aF0.0033285715839311142
aF0.012890863802079933
aF0.00023523474091335927
aF0.12441565446934161
aF0.028087028065115538
aF1.1168475029108342
aF0.0040695610178098146
aF0.00038813732250764232
aF0.00011761737045690168
aF0.056303435237733401
aF0.0020465422459506333
aF0.64622511850151532
aF0.00034109037432594747
aF0.3744466605866863
aF4.7046948183249171e-05
aF0.087883699205419108
aF0.073851946909907262
aF5.8808685228534108e-05
aF0.35272861313181514
aa(lp38
F22.221745980179247
aF16.077994787389983
aF12.792139366244548
aF-4.8333342012209197
aF10.507666828028395
aF9.3762378898115095
aF9.1725343811454412
aF7.2959251900341568
aF6.5723610452396413
aF6.8460259162983137
aF6.7509969058517889
aF5.7237662477586646
aF5.3236436577052597
aF3.9792016681233884
aF3.7835033862631349
aF3.326572903241237
aF1.8656895023267408
aF1.7369140978370321
aF0.95439576941435667
aF0.66533679694477976
aF0.59859477667643535
aF0.49995736029266669
aF0.3818107007962811
aF0.28335999504942244
aF0.22535884114729665
aF0.022659272326264204
aF0.052967737439799052
aF0.14138658199727014
aF0.120987677249416
aF0.11594404010689699
aa(lp39
F23.691343278750036
aF17.089133837062153
aF13.317769163176797
aF11.141998246409196
aF10.173247200704715
aF9.2016779915999667
aF7.649107917548978
aF7.2813243249921324
aF6.671731236776882
aF6.7511547869725481
aF5.8344442837375095
aF5.4096612623403795
aF4.5009716647758955
aF3.9205856883870314
aF3.3269396060100798
aF2.8375444027628913
aF1.7679536592008414
aF0.98699796179259547
aF0.93484971689570695
aF0.64782747694791198
aF0.59083524466229387
aF0.49383459419824582
aF0.38166405728259017
aF0.27955461418149519
aF0.021809765122213779
aF0.22269900091171196
aF0.052760892740578366
aF0.14111388408184813
aF0.12059929567818034
aF0.11336720871928234
aaI174
aI280
aI140
a.