(lp1
I107
a(lp2
(I0
I3
tp3
a(I0
I3
tp4
a(I0
I3
tp5
a(I0
I3
tp6
a(I0
I3
tp7
a(I0
I3
tp8
a(I0
I3
tp9
a(I0
I3
tp10
a(I0
I3
tp11
a(I0
I3
tp12
a(I0
I3
tp13
a(I0
I3
tp14
a(I0
I3
tp15
a(I0
I2
tp16
a(I0
I2
tp17
a(I0
I2
tp18
a(I0
I2
tp19
a(I0
I2
tp20
a(I0
I2
tp21
a(I0
I1
tp22
a(I0
I2
tp23
a(I0
I2
tp24
a(I0
I2
tp25
a(I0
I2
tp26
a(I0
I2
tp27
a(I0
I1
tp28
a(I0
I1
tp29
a(I0
I1
tp30
a(I0
I1
tp31
a(I0
I2
tp32
a(I0
I2
tp33
a(I0
I2
tp34
a(I0
I2
tp35
a(I0
I2
tp36
aa(lp37
F0.0035865687525737933
aF0.12715149327609621
aF0.0010365438061520349
aF0.59350558795089259
aF1.5897911129769682e-06
aF0.91260740043796051
aF0.13089386155781391
aF0.00010651600462097122
aF0.00073819300713995339
aF0.0035738504236642044
aF0.0001112853779607903
aF1.5897911134210574e-06
aF0.00074455217159474785
aF0.44942935512148585
aF8.9028302370453005e-05
aF1.5897911137430221e-05
aF1.9077493365160514e-05
aF0.0092557638641341811
aF0.54050990117471676
aF0.2909293008041276
aF0.0036247237393036702
aF0.15736865297475805
aF0.012921822172396569
aF0.0009045911437159937
aF0.31154659518425354
aF0.0027948527779346755
aF0.68858251557712302
aF6.359164454572408e-06
aF0.0010270050594702873
aF1.2262809594889355
aa(lp38
F23.632404427568879
aF20.158245222199479
aF14.198224163201402
aF-5.8371013756891195
aF12.606273997051778
aF11.068281137139923
aF10.110531149340916
aF8.918799106389665
aF8.4468442180370147
aF7.7137482686177279
aF6.947491934856588
aF5.6565909147066193
aF5.8824679308864631
aF4.7174933239055656
aF3.7823132792666532
aF2.8787214559739223
aF2.0963247662756719
aF1.7015759231885841
aF0.71347846129003567
aF0.40762349927481284
aF0.18793130870861605
aF0.16285614015388439
aF0.14635822020842901
aF0.11197561288044082
aF0.093162930237490255
aF0.00031315771681737412
aF0.038859896926167307
aF0.017294902647005082
aF0.022100008530723168
aF0.021315195190708892
aa(lp39
F28.288666975735666
aF20.373615924082653
aF14.231798839592656
aF12.609946312981668
aF11.329299098090495
aF10.168927643492488
aF9.0290005649228178
aF8.5928109625868867
aF7.7260916134116648
aF7.0685577263332142
aF5.9182446262830659
aF5.7139939613024957
aF5.5678488592648989
aF4.3091980281565947
aF3.668041142367632
aF2.3532436113384558
aF1.9020441224591333
aF1.655782059989956
aF0.54488215060169309
aF0.34375538428942215
aF0.18542110243599511
aF0.15927017945728622
aF0.14635417996451736
aF0.11178900441893065
aF0.093050494524290928
aF0.00031278236576563935
aF0.038799731417895174
aF0.017276642324823281
aF0.022099659167757146
aF0.021254856377789861
aaI170
aI272
aI136
a.