(lp1
I6591
a(lp2
(I0
I3
tp3
a(I0
I3
tp4
a(I0
I3
tp5
a(I0
I3
tp6
a(I0
I3
tp7
a(I0
I3
tp8
a(I0
I3
tp9
a(I0
I3
tp10
a(I0
I3
tp11
a(I0
I3
tp12
a(I0
I3
tp13
a(I0
I3
tp14
a(I0
I3
tp15
a(I0
I3
tp16
a(I0
I3
tp17
a(I0
I3
tp18
a(I0
I3
tp19
a(I0
I3
tp20
a(I0
I2
tp21
a(I0
I2
tp22
a(I0
I2
tp23
a(I0
I2
tp24
a(I0
I2
tp25
a(I0
I2
tp26
a(I0
I2
tp27
a(I0
I2
tp28
a(I0
I1
tp29
a(I0
I2
tp30
a(I0
I1
tp31
a(I0
I1
tp32
a(I0
I2
tp33
a(I0
I2
tp34
a(I0
I2
tp35
a(I0
I2
tp36
aa(lp37
F0.80406598660697837
aF0.12263648999180843
aF0.021945769296364936
aF0.0055854979624454515
aF0.18411320924669217
aF0.38586437470056056
aF0.28067717756896515
aF0.00028698086581435689
aF0.65392015150583238
aF0.0015783947619851801
aF0.0044482034201398513
aF0.0043684865129680617
aF0.016278192444309614
aF0.0036988644927329339
aF0.50702344467946769
aF0.39607743912428317
aF0.27598251604414736
aF0.0010522631746560096
aF9.5660288603582888e-05
aF0.5533579374172235
aF0.0017697153391954545
aF0.0043684865129662853
aF0.10366408752097866
aF0.02900868727171213
aF0.50965137157391638
aF0.00014349043290762253
aF0.3690547362084442
aF0.0054898376738410359
aF0.37293030651207215
aF4.783014429943222e-05
aa(lp38
F17.139269889540209
aF14.171454267667231
aF11.087542624543845
aF10.616586849201958
aF9.9478943732472427
aF9.7473162224212739
aF-3.6160329671966873
aF8.4041613777904356
aF7.680166489998987
aF6.8140418101748317
aF6.1081270329054558
aF5.4640084146714054
aF4.9815715310403448
aF4.1924306326248537
aF3.7224810492705065
aF3.3588305097636977
aF3.0394440200229105
aF2.4584646508142605
aF2.0331309151730563
aF1.4922675662010996
aF1.4156693895910832
aF0.98936446931952193
aF0.77208649937589002
aF0.64733370973910997
aF0.31376150588454305
aF0.05740945685519519
aF0.077584679154803715
aF0.22082512778775792
aF0.13587593468886297
aF0.16698324642980789
aa(lp39
F17.338771599348018
aF15.152275057525923
aF11.732348733182757
aF10.794376696379361
aF9.9986243162102095
aF9.7908194758262503
aF9.5645056961461421
aF7.7498765351011878
aF6.8308854094206701
aF6.5529694203921265
aF6.0054226994418283
aF5.1132275393739191
aF4.7733612712675368
aF3.8195398385110368
aF3.5490204037490805
aF3.0436630469285508
aF2.6979664629909457
aF2.4064523771249009
aF1.9867152665910013
aF1.4158381470099064
aF0.98954378612844163
aF0.8161438307040334
aF0.74376228115239718
aF0.60017539135399978
aF0.31375954754259533
aF0.041994165523839382
aF0.077034734905140498
aF0.21793630827242935
aF0.1344178433812005
aF0.16686584107745603
aaI178
aI288
aI144
a.